(dp1
S'chatthing_package'
p2
ccopy_reg
_reconstructor
p3
(ctwisted.plugin
CachedDropin
p4
c__builtin__
object
p5
Ntp6
Rp7
(dp8
S'moduleName'
p9
S'nevow.plugins.chatthing_package'
p10
sS'description'
p11
NsS'plugins'
p12
(lp13
g3
(ctwisted.plugin
CachedPlugin
p14
g5
Ntp15
Rp16
(dp17
S'dropin'
p18
g7
sS'name'
p19
S'chatthingPkg'
p20
sg11
S'\n    A L{inevow.IJavascriptPackage} implementation that scans an on-disk\n    hierarchy locating modules and packages.\n\n    @type baseDir: C{str}\n    @ivar baseDir: A path to the root of a JavaScript packages/modules\n    filesystem hierarchy.\n    '
p21
sS'provided'
p22
(lp23
ctwisted.plugin
IPlugin
p24
acnevow.inevow
IJavascriptPackage
p25
asbasbs.