S'3.2'
p1
.S'LALR'
p1
.S"\x0b\x9d#\x01\xe7\xbcC8''\xde\xbd<sV\xf8"
p1
.(dp1
I0
(dp2
S'IDENTIFIER'
p3
I6
sS'STRING'
p4
I2
ssI1
(dp5
S'IDENTIFIER'
p6
I12
sS'LEFTBRACE'
p7
I10
sS'STRING'
p8
I11
ssI2
(dp9
g8
I-17
sg6
I-17
sS'EQUAL'
p10
I-7
sg7
I-17
ssI3
(dp11
S'$end'
p12
I0
ssI4
(dp13
g10
I14
ssI5
(dp14
S'RIGHTBRACE'
p15
I-2
sg3
I-2
sg4
I-2
sS'$end'
p16
I-2
ssI6
(dp17
g8
I-16
sg6
I-16
sg10
I-6
sg7
I-16
ssI7
(dp18
g16
I-13
sg3
I-13
sg15
I-13
sg4
I-13
ssI8
(dp19
g3
I6
sg4
I2
sg16
I-1
ssI9
(dp20
g16
I-14
sg3
I-14
sg15
I-14
sg4
I-14
ssI10
(dp21
g3
I6
sS'RIGHTBRACE'
p22
I16
sg4
I2
ssI11
(dp23
g6
I-17
sg7
I-17
sg8
I-17
ssI12
(dp24
g6
I-16
sg7
I-16
sg8
I-16
ssI13
(dp25
g16
I-15
sg3
I-15
sg15
I-15
sg4
I-15
ssI14
(dp26
S'STRING'
p27
I19
sS'FLOAT'
p28
I26
sS'NUMBER'
p29
I28
sS'BOOL'
p30
I25
sS'LEFTBRACKET'
p31
I21
sS'MINUS'
p32
I27
sg7
I10
ssI15
(dp33
g15
I-3
sg3
I-3
sg4
I-3
sg16
I-3
ssI16
(dp34
g15
I-5
sg3
I-5
sg4
I-5
sg16
I-5
ssI17
(dp35
g3
I6
sg15
I29
sg4
I2
ssI18
(dp36
S'EMINUS'
p37
I30
sS'RIGHTBRACKET'
p38
I-26
sS'EPLUS'
p39
I31
sg4
I-26
sS'COMMAEND'
p40
I-26
sg15
I-26
sS'COMMA'
p41
I-26
sg3
I-26
sg16
I-26
ssI19
(dp42
g16
I-10
sg3
I-10
sg15
I-10
sg4
I-10
ssI20
(dp43
g37
I30
sg38
I-25
sg39
I31
sg4
I-25
sg40
I-25
sg15
I-25
sg41
I-25
sg3
I-25
sg16
I-25
ssI21
(dp44
g29
I28
sS'RIGHTBRACKET'
p45
I34
sg28
I26
sS'STRING'
p46
I35
sg32
I27
ssI22
(dp47
g16
I-11
sg3
I-11
sg15
I-11
sg4
I-11
ssI23
(dp48
g16
I-12
sg3
I-12
sg15
I-12
sg4
I-12
ssI24
(dp49
g16
I-8
sg3
I-8
sg15
I-8
sg4
I-8
ssI25
(dp50
g16
I-9
sg3
I-9
sg15
I-9
sg4
I-9
ssI26
(dp51
g37
I-32
sg38
I-32
sg39
I-32
sg4
I-32
sg40
I-32
sg15
I-32
sg41
I-32
sg3
I-32
sg16
I-32
ssI27
(dp52
g28
I26
sg32
I27
sg29
I28
ssI28
(dp53
g37
I-30
sg38
I-30
sg39
I-30
sg4
I-30
sg40
I-30
sg15
I-30
sg41
I-30
sg3
I-30
sg16
I-30
ssI29
(dp54
g15
I-4
sg3
I-4
sg4
I-4
sg16
I-4
ssI30
(dp55
S'NUMBER'
p56
I41
ssI31
(dp57
S'NUMBER'
p58
I42
ssI32
(dp59
g38
I-28
sg4
I-28
sg40
I-28
sg15
I-28
sg41
I-28
sg3
I-28
sg16
I-28
ssI33
(dp60
g38
I-27
sg4
I-27
sg40
I-27
sg15
I-27
sg41
I-27
sg3
I-27
sg16
I-27
ssI34
(dp61
g15
I-19
sg3
I-19
sg4
I-19
sg16
I-19
ssI35
(dp62
g40
I-24
sg38
I-24
sg41
I-24
ssI36
(dp63
g40
I44
sg38
I43
sg41
I45
ssI37
(dp64
g40
I-23
sg38
I-23
sg41
I-23
ssI38
(dp65
g40
I-20
sg38
I-20
sg41
I-20
ssI39
(dp66
g37
I-29
sg38
I-29
sg39
I-29
sg4
I-29
sg40
I-29
sg15
I-29
sg41
I-29
sg3
I-29
sg16
I-29
ssI40
(dp67
g37
I-31
sg38
I-31
sg39
I-31
sg4
I-31
sg40
I-31
sg15
I-31
sg41
I-31
sg3
I-31
sg16
I-31
ssI41
(dp68
g38
I-34
sg4
I-34
sg40
I-34
sg15
I-34
sg41
I-34
sg3
I-34
sg16
I-34
ssI42
(dp69
g38
I-33
sg4
I-33
sg40
I-33
sg15
I-33
sg41
I-33
sg3
I-33
sg16
I-33
ssI43
(dp70
g15
I-18
sg3
I-18
sg4
I-18
sg16
I-18
ssI44
(dp71
g40
I-22
sg38
I-22
sg41
I-22
ssI45
(dp72
g29
I28
sg28
I26
sg46
I35
sg32
I27
ssI46
(dp73
g40
I-21
sg38
I-21
sg41
I-21
ss.(dp1
I0
(dp2
S'top'
p3
I3
sS'blockId'
p4
I1
sS'objectkey'
p5
I4
sS'objectitem'
p6
I5
sS'block'
p7
I7
sS'objectlist'
p8
I8
ssI1
(dp9
g4
I1
sS'block'
p10
I13
sS'object'
p11
I9
ssI2
(dp12
sI3
(dp13
sI4
(dp14
sI5
(dp15
sI6
(dp16
sI7
(dp17
sI8
(dp18
g5
I4
sS'objectitem'
p19
I15
sg4
I1
sg7
I7
ssI9
(dp20
sI10
(dp21
g5
I4
sg6
I5
sg4
I1
sg7
I7
sS'objectlist'
p22
I17
ssI11
(dp23
sI12
(dp24
sI13
(dp25
sI14
(dp26
S'int'
p27
I20
sS'float'
p28
I18
sS'object'
p29
I22
sS'list'
p30
I23
sS'number'
p31
I24
ssI15
(dp32
sI16
(dp33
sI17
(dp34
g5
I4
sg19
I15
sg4
I1
sg7
I7
ssI18
(dp35
S'exp'
p36
I32
ssI19
(dp37
sI20
(dp38
S'exp'
p39
I33
ssI21
(dp40
g27
I20
sS'listitem'
p41
I38
sg28
I18
sS'number'
p42
I37
sS'listitems'
p43
I36
ssI22
(dp44
sI23
(dp45
sI24
(dp46
sI25
(dp47
sI26
(dp48
sI27
(dp49
S'int'
p50
I39
sS'float'
p51
I40
ssI28
(dp52
sI29
(dp53
sI30
(dp54
sI31
(dp55
sI32
(dp56
sI33
(dp57
sI34
(dp58
sI35
(dp59
sI36
(dp60
sI37
(dp61
sI38
(dp62
sI39
(dp63
sI40
(dp64
sI41
(dp65
sI42
(dp66
sI43
(dp67
sI44
(dp68
sI45
(dp69
g27
I20
sg28
I18
sg42
I37
sS'listitem'
p70
I46
ssI46
(dp71
s.(lp1
(S"S' -> top"
p2
S"S'"
p3
I1
NNNtp4
a(S'top -> objectlist'
p5
S'top'
p6
I1
S'p_top'
p7
S'/mnt/sdb1/virtuald/src/git/pyhcl/src/hcl/parser.py'
p8
I75
tp9
a(S'objectlist -> objectitem'
p10
S'objectlist'
p11
I1
S'p_objectlist_0'
p12
S'/mnt/sdb1/virtuald/src/git/pyhcl/src/hcl/parser.py'
p13
I81
tp14
a(S'objectlist -> objectlist objectitem'
p15
S'objectlist'
p16
I2
S'p_objectlist_1'
p17
S'/mnt/sdb1/virtuald/src/git/pyhcl/src/hcl/parser.py'
p18
I86
tp19
a(S'object -> LEFTBRACE objectlist RIGHTBRACE'
p20
S'object'
p21
I3
S'p_object_0'
p22
S'/mnt/sdb1/virtuald/src/git/pyhcl/src/hcl/parser.py'
p23
I92
tp24
a(S'object -> LEFTBRACE RIGHTBRACE'
p25
S'object'
p26
I2
S'p_object_1'
p27
S'/mnt/sdb1/virtuald/src/git/pyhcl/src/hcl/parser.py'
p28
I97
tp29
a(S'objectkey -> IDENTIFIER'
p30
S'objectkey'
p31
I1
S'p_objectkey_0'
p32
S'/mnt/sdb1/virtuald/src/git/pyhcl/src/hcl/parser.py'
p33
I103
tp34
a(S'objectkey -> STRING'
p35
g31
I1
g32
g33
I104
tp36
a(S'objectitem -> objectkey EQUAL number'
p37
S'objectitem'
p38
I3
S'p_objectitem_0'
p39
S'/mnt/sdb1/virtuald/src/git/pyhcl/src/hcl/parser.py'
p40
I111
tp41
a(S'objectitem -> objectkey EQUAL BOOL'
p42
g38
I3
g39
g40
I112
tp43
a(S'objectitem -> objectkey EQUAL STRING'
p44
g38
I3
g39
g40
I113
tp45
a(S'objectitem -> objectkey EQUAL object'
p46
g38
I3
g39
g40
I114
tp47
a(S'objectitem -> objectkey EQUAL list'
p48
g38
I3
g39
g40
I115
tp49
a(S'objectitem -> block'
p50
S'objectitem'
p51
I1
S'p_objectitem_1'
p52
S'/mnt/sdb1/virtuald/src/git/pyhcl/src/hcl/parser.py'
p53
I121
tp54
a(S'block -> blockId object'
p55
S'block'
p56
I2
S'p_block_0'
p57
S'/mnt/sdb1/virtuald/src/git/pyhcl/src/hcl/parser.py'
p58
I127
tp59
a(S'block -> blockId block'
p60
S'block'
p61
I2
S'p_block_1'
p62
S'/mnt/sdb1/virtuald/src/git/pyhcl/src/hcl/parser.py'
p63
I132
tp64
a(S'blockId -> IDENTIFIER'
p65
S'blockId'
p66
I1
S'p_blockId'
p67
S'/mnt/sdb1/virtuald/src/git/pyhcl/src/hcl/parser.py'
p68
I138
tp69
a(S'blockId -> STRING'
p70
g66
I1
g67
g68
I139
tp71
a(S'list -> LEFTBRACKET listitems RIGHTBRACKET'
p72
S'list'
p73
I3
S'p_list_0'
p74
S'/mnt/sdb1/virtuald/src/git/pyhcl/src/hcl/parser.py'
p75
I146
tp76
a(S'list -> LEFTBRACKET RIGHTBRACKET'
p77
S'list'
p78
I2
S'p_list_1'
p79
S'/mnt/sdb1/virtuald/src/git/pyhcl/src/hcl/parser.py'
p80
I151
tp81
a(S'listitems -> listitem'
p82
S'listitems'
p83
I1
S'p_listitems_0'
p84
S'/mnt/sdb1/virtuald/src/git/pyhcl/src/hcl/parser.py'
p85
I157
tp86
a(S'listitems -> listitems COMMA listitem'
p87
S'listitems'
p88
I3
S'p_listitems_1'
p89
S'/mnt/sdb1/virtuald/src/git/pyhcl/src/hcl/parser.py'
p90
I162
tp91
a(S'listitems -> listitems COMMAEND'
p92
S'listitems'
p93
I2
S'p_listitems_2'
p94
S'/mnt/sdb1/virtuald/src/git/pyhcl/src/hcl/parser.py'
p95
I167
tp96
a(S'listitem -> number'
p97
S'listitem'
p98
I1
S'p_listitem'
p99
S'/mnt/sdb1/virtuald/src/git/pyhcl/src/hcl/parser.py'
p100
I173
tp101
a(S'listitem -> STRING'
p102
g98
I1
g99
g100
I174
tp103
a(S'number -> int'
p104
S'number'
p105
I1
S'p_number_0'
p106
S'/mnt/sdb1/virtuald/src/git/pyhcl/src/hcl/parser.py'
p107
I180
tp108
a(S'number -> float'
p109
S'number'
p110
I1
S'p_number_1'
p111
S'/mnt/sdb1/virtuald/src/git/pyhcl/src/hcl/parser.py'
p112
I185
tp113
a(S'number -> int exp'
p114
S'number'
p115
I2
S'p_number_2'
p116
S'/mnt/sdb1/virtuald/src/git/pyhcl/src/hcl/parser.py'
p117
I190
tp118
a(S'number -> float exp'
p119
S'number'
p120
I2
S'p_number_3'
p121
S'/mnt/sdb1/virtuald/src/git/pyhcl/src/hcl/parser.py'
p122
I195
tp123
a(S'int -> MINUS int'
p124
S'int'
p125
I2
S'p_int_0'
p126
S'/mnt/sdb1/virtuald/src/git/pyhcl/src/hcl/parser.py'
p127
I200
tp128
a(S'int -> NUMBER'
p129
S'int'
p130
I1
S'p_int_1'
p131
S'/mnt/sdb1/virtuald/src/git/pyhcl/src/hcl/parser.py'
p132
I205
tp133
a(S'float -> MINUS float'
p134
S'float'
p135
I2
S'p_float_0'
p136
S'/mnt/sdb1/virtuald/src/git/pyhcl/src/hcl/parser.py'
p137
I210
tp138
a(S'float -> FLOAT'
p139
S'float'
p140
I1
S'p_float_1'
p141
S'/mnt/sdb1/virtuald/src/git/pyhcl/src/hcl/parser.py'
p142
I214
tp143
a(S'exp -> EPLUS NUMBER'
p144
S'exp'
p145
I2
S'p_exp_0'
p146
S'/mnt/sdb1/virtuald/src/git/pyhcl/src/hcl/parser.py'
p147
I218
tp148
a(S'exp -> EMINUS NUMBER'
p149
S'exp'
p150
I2
S'p_exp_1'
p151
S'/mnt/sdb1/virtuald/src/git/pyhcl/src/hcl/parser.py'
p152
I223
tp153
a.