(dp1
VDATASERVICE_ACTIVESTORESLIST
p2
Vv1/DATASERVICE_ACTIVESTORESLIST
p3
sVAUTHSERVICE_LOGOUT
p4
Vv1/AUTHSERVICE_LOGOUT
p5
sVSTART_ALL_SERVICES
p6
Vv1/START_ALL_SERVICES
p7
sVCONFIG_REGISTER_DEVICE
p8
Vv1/CONFIG_REGISTER_DEVICE
p9
sVDATASERVICE_DELETEFEATURE
p10
Vv1/DATASERVICE_DELETEFEATURE
p11
sVSENSORSERVICE_GPS
p12
Vv1/SENSORSERVICE_GPS
p13
sVDATASERVICE_STORELIST
p14
Vv1/DATASERVICE_STORELIST
p15
sVCONFIG_REMOVE_STORE
p16
Vv1/CONFIG_REMOVE_STORE
p17
sVDATASERVICE_QUERYALL
p18
Vv1/DATASERVICE_QUERYALL
p19
sVNOTIFICATION_INFO
p20
Vv1/NOTIFICATION_INFO
p21
sVNOTIFICATION_ALERT
p22
Vv1/NOTIFICATION_ALERT
p23
sVNOTIFICATION_CONTENT_AVAILABLE
p24
Vv1/NOTIFICATION_CONTENT_AVAILABLE
p25
sVAUTHSERVICE_LOGIN_STATUS
p26
Vv1/AUTHSERVICE_LOGIN_STATUS
p27
sVDATASERVICE_CREATEFEATURE
p28
Vv1/DATASERVICE_CREATEFEATURE
p29
sVCONFIG_ADD_FORM
p30
Vv1/CONFIG_ADD_FORM
p31
sVCONFIG_FORM_LIST
p32
Vv1/CONFIG_FORM_LIST
p33
sVCONFIG_UPDATE_FORM
p34
Vv1/CONFIG_UPDATE_FORM
p35
sVDATASERVICE_SPATIALQUERY
p36
Vv1/DATASERVICE_SPATIALQUERY
p37
sVAUTHSERVICE_AUTHENTICATE
p38
Vv1/AUTHSERVICE_AUTHENTICATE
p39
sVDATASERVICE_SPATIALQUERYALL
p40
Vv1/DATASERVICE_SPATIALQUERYALL
p41
sVCONFIG_REMOVE_FORM
p42
Vv1/CONFIG_REMOVE_FORM
p43
sVDATASERVICE_FORMLIST
p44
Vv1/DATASERVICE_FORMLIST
p45
sVNO_ACTION
p46
Vv1/NO_ACTION
p47
sVDATASERVICE_QUERY
p48
Vv1/DATASERVICE_QUERY
p49
sVCONFIG_ADD_STORE
p50
Vv1/CONFIG_ADD_STORE
p51
sVAUTHSERVICE_ACCESS_TOKEN
p52
Vv1/AUTHSERVICE_ACCESS_TOKEN
p53
sVNETWORKSERVICE_POST_REQUEST
p54
Vv1/NETWORKSERVICE_POST_REQUEST
p55
sVCONFIG_FULL
p56
Vv1/CONFIG_FULL
p57
sVCONFIG_STORE_LIST
p58
Vv1/CONFIG_STORE_LIST
p59
sVBACKENDSERVICE_MQTT_CONNECTED
p60
Vv1/BACKENDSERVICE_MQTT_CONNECTED
p61
sVDEVICE_INFO
p62
Vv1/DEVICE_INFO
p63
sS'_version'
p64
V0.10
p65
sVDATASERVICE_UPDATEFEATURE
p66
Vv1/DATASERVICE_UPDATEFEATURE
p67
sVSPATIALIO_IMPORT
p68
Vv1/SPATIALIO_IMPORT
p69
sVNOTIFICATIONS
p70
Vv1/NOTIFICATIONS
p71
sVNETWORKSERVICE_GET_REQUEST
p72
Vv1/NETWORKSERVICE_GET_REQUEST
p73
sVCONFIG_UPDATE_STORE
p74
Vv1/CONFIG_UPDATE_STORE
p75
sVDATASERVICE_ACTIVESTOREBYID
p76
Vv1/DATASERVICE_ACTIVESTOREBYID
p77
sVBACKENDSERVICE_HTTP_URI
p78
Vv1/BACKENDSERVICE_HTTP_URI
p79
s.