ccopy_reg
_reconstructor
p0
(crequests.models
Response
p1
c__builtin__
object
p2
Ntp3
Rp4
(dp5
S'cookies'
p6
g0
(crequests.cookies
RequestsCookieJar
p7
g2
Ntp8
Rp9
(dp10
S'_now'
p11
I1494317828
sS'_policy'
p12
(icookielib
DefaultCookiePolicy
p13
(dp14
S'strict_rfc2965_unverifiable'
p15
I01
sS'strict_ns_domain'
p16
I0
sS'_allowed_domains'
p17
NsS'rfc2109_as_netscape'
p18
NsS'rfc2965'
p19
I00
sS'strict_domain'
p20
I00
sg11
I1494317828
sS'strict_ns_set_path'
p21
I00
sS'strict_ns_unverifiable'
p22
I00
sS'strict_ns_set_initial_dollar'
p23
I00
sS'hide_cookie2'
p24
I00
sS'_blocked_domains'
p25
(tsS'netscape'
p26
I01
sbsS'_cookies'
p27
(dp28
S'.google.co.uk'
p29
(dp30
S'/'
p31
(dp32
S'NID'
p33
(icookielib
Cookie
p34
(dp35
S'comment'
p36
NsS'domain'
p37
g29
sS'name'
p38
g33
sS'domain_initial_dot'
p39
I01
sS'expires'
p40
I1510129028
sS'value'
p41
S'103=b2jNDpAo9zF3Hm0VkiD-uxBviYeUC_4j9DiAgc7rza-H6saYTRW-c1nDRkA_9tToeO3pLdVq68o4KQLWix7-0x2u0numS662bdYZ2llz-H2Akt9QuudMccExCdHV5oLO'
p42
sS'domain_specified'
p43
I01
sS'_rest'
p44
(dp45
S'HttpOnly'
p46
NssS'version'
p47
I0
sS'port_specified'
p48
I00
sS'rfc2109'
p49
I00
sS'discard'
p50
I00
sS'path_specified'
p51
I01
sS'path'
p52
g31
sS'port'
p53
NsS'comment_url'
p54
NsS'secure'
p55
I00
sbssssbsS'_content'
p56
S'<!doctype html><html itemscope="" itemtype="http://schema.org/WebPage" lang="en-GB"><head><meta content="text/html; charset=UTF-8" http-equiv="Content-Type"><meta content="/logos/doodles/2017/ferdinand-monoyers-181st-birthday-5105939098107904.2-law.gif" itemprop="image"><meta content="Ferdinand Monoyer&#8217;s 181st birthday" property="twitter:title"><meta content="Ferdinand Monoyer&#8217;s 181st birthday! #GoogleDoodle" property="twitter:description"><meta content="Ferdinand Monoyer&#8217;s 181st birthday! #GoogleDoodle" property="og:description"><meta content="summary_large_image" property="twitter:card"><meta content="@GoogleDoodles" property="twitter:site"><meta content="https://www.google.com/logos/doodles/2017/ferdinand-monoyers-181st-birthday-5105939098107904.2-law.gif" property="twitter:image"><meta content="https://www.google.com/logos/doodles/2017/ferdinand-monoyers-181st-birthday-5105939098107904.2-law.gif" property="og:image"><meta content="474" property="og:image:width"><meta content="220" property="og:image:height"><meta content="http://www.google.com/logos/doodles/2017/ferdinand-monoyers-181st-birthday-5105939098107904.4-2xa.gif" property="og:url"><meta content="video.other" property="og:type"><title>Google</title><script>(function(){window.google={kEI:\'BHsRWaX1AYKAacn3lcAD\',kEXPI:\'3700062,3700267,3700347,3700410,3700425,4026240,4026241,4029815,4031109,4032678,4036527,4039268,4043492,4045841,4048347,4064904,4065787,4071842,4072364,4072773,4075963,4076095,4076999,4077776,4079444,4081039,4081165,4083044,4090550,4090553,4091420,4092934,4093314,4093808,4093951,4094251,4094544,4095910,4096278,4096324,4097153,4097470,4097922,4097929,4097951,4098096,4098721,4098728,4098752,4099732,4100169,4100717,4101376,4101429,4101750,4102029,4102108,4102400,4102851,4103215,4103475,4103849,4103939,4103999,4104204,4105085,4105178,4105317,4105321,4105481,4106634,4106949,4107221,4107223,4107555,4107628,4107989,4108479,4108537,4108539,4108932,4109489,4109498,4109538,4109554,4110094,4110361,4110582,8503585,8508229,8508931,8509037,8509090,8509373,8510344,10200084,10202330,19002008,19002176,19002177,19002179,19002226,19002230,41027342\',authuser:0,kscs:\'c9c918f0_24\'};google.kHL=\'en-GB\';})();(function(){google.lc=[];google.li=0;google.getEI=function(a){for(var b;a&&(!a.getAttribute||!(b=a.getAttribute("eid")));)a=a.parentNode;return b||google.kEI};google.getLEI=function(a){for(var b=null;a&&(!a.getAttribute||!(b=a.getAttribute("leid")));)a=a.parentNode;return b};google.https=function(){return"https:"==window.location.protocol};google.ml=function(){return null};google.wl=function(a,b){try{google.ml(Error(a),!1,b)}catch(c){}};google.time=function(){return(new Date).getTime()};google.log=function(a,b,c,d,g){a=google.logUrl(a,b,c,d,g);if(""!=a){b=new Image;var e=google.lc,f=google.li;e[f]=b;b.onerror=b.onload=b.onabort=function(){delete e[f]};window.google&&window.google.vel&&window.google.vel.lu&&window.google.vel.lu(a);b.src=a;google.li=f+1}};google.logUrl=function(a,b,c,d,g){var e="",f=google.ls||"";c||-1!=b.search("&ei=")||(e="&ei="+google.getEI(d),-1==b.search("&lei=")&&(d=google.getLEI(d))&&(e+="&lei="+d));a=c||"/"+(g||"gen_204")+"?atyp=i&ct="+a+"&cad="+b+e+f+"&zx="+google.time();/^http:/i.test(a)&&google.https()&&(google.ml(Error("a"),!1,{src:a,glmm:1}),a="");return a};google.y={};google.x=function(a,b){google.y[a.id]=[a,b];return!1};google.lq=[];google.load=function(a,b,c){google.lq.push([[a],b,c])};google.loadAll=function(a,b){google.lq.push([a,b])};}).call(this);var a=window.location,b=a.href.indexOf("#");if(0<=b){var c=a.href.substring(b+1);/(^|&)q=/.test(c)&&-1==c.indexOf("#")&&a.replace("/search?"+c.replace(/(^|&)fp=[^&]*/g,"")+"&cad=h")};</script><style>#gbar,#guser{font-size:13px;padding-top:1px !important;}#gbar{height:22px}#guser{padding-bottom:7px !important;text-align:right}.gbh,.gbd{border-top:1px solid #c9d7f1;font-size:1px}.gbh{height:0;position:absolute;top:24px;width:100%}@media all{.gb1{height:22px;margin-right:.5em;vertical-align:top}#gbar{float:left}}a.gb1,a.gb4{text-decoration:underline !important}a.gb1,a.gb4{color:#00c !important}.gbi .gb4{color:#dd8e27 !important}.gbf .gb4{color:#900 !important}\n</style><style>body,td,a,p,.h{font-family:arial,sans-serif}body{margin:0;overflow-y:scroll}#gog{padding:3px 8px 0}td{line-height:.8em}.gac_m td{line-height:17px}form{margin-bottom:20px}.h{color:#36c}.q{color:#00c}.ts td{padding:0}.ts{border-collapse:collapse}em{font-weight:bold;font-style:normal}.lst{height:25px;width:496px}.gsfi,.lst{font:18px arial,sans-serif}.gsfs{font:17px arial,sans-serif}.ds{display:inline-box;display:inline-block;margin:3px 0 4px;margin-left:4px}input{font-family:inherit}a.gb1,a.gb2,a.gb3,a.gb4{color:#11c !important}body{background:#fff;color:black}a{color:#11c;text-decoration:none}a:hover,a:active{text-decoration:underline}.fl a{color:#36c}a:visited{color:#551a8b}a.gb1,a.gb4{text-decoration:underline}a.gb3:hover{text-decoration:none}#ghead a.gb2:hover{color:#fff !important}.sblc{padding-top:5px}.sblc a{display:block;margin:2px 0;margin-left:13px;font-size:11px}.lsbb{background:#eee;border:solid 1px;border-color:#ccc #999 #999 #ccc;height:30px}.lsbb{display:block}.ftl,#fll a{display:inline-block;margin:0 12px}.lsb{background:url(/images/nav_logo229.png) 0 -261px repeat-x;border:none;color:#000;cursor:pointer;height:30px;margin:0;outline:0;font:15px arial,sans-serif;vertical-align:top}.lsb:active{background:#ccc}.lst:focus{outline:none}</style><script></script><link href="/images/branding/product/ico/googleg_lodp.ico" rel="shortcut icon"></head><body bgcolor="#fff"><script>(function(){var src=\'/images/nav_logo229.png\';var iesg=false;document.body.onload = function(){window.n && window.n();if (document.images){new Image().src=src;}\nif (!iesg){document.f&&document.f.q.focus();document.gbqf&&document.gbqf.q.focus();}\n}\n})();</script><div id="mngb"> <div id=gbar><nobr><b class=gb1>Search</b> <a class=gb1 href="http://www.google.co.uk/imghp?hl=en&tab=wi">Images</a> <a class=gb1 href="http://maps.google.co.uk/maps?hl=en&tab=wl">Maps</a> <a class=gb1 href="https://play.google.com/?hl=en&tab=w8">Play</a> <a class=gb1 href="http://www.youtube.com/?gl=GB&tab=w1">YouTube</a> <a class=gb1 href="http://news.google.co.uk/nwshp?hl=en&tab=wn">News</a> <a class=gb1 href="https://mail.google.com/mail/?tab=wm">Gmail</a> <a class=gb1 href="https://drive.google.com/?tab=wo">Drive</a> <a class=gb1 style="text-decoration:none" href="https://www.google.co.uk/intl/en/options/"><u>More</u> &raquo;</a></nobr></div><div id=guser width=100%><nobr><span id=gbn class=gbi></span><span id=gbf class=gbf></span><span id=gbe></span><a href="http://www.google.co.uk/history/optout?hl=en" class=gb4>Web History</a> | <a  href="/preferences?hl=en" class=gb4>Settings</a> | <a target=_top id=gb_70 href="https://accounts.google.com/ServiceLogin?hl=en&passive=true&continue=http://www.google.co.uk/%3Fgfe_rd%3Dcr%26ei%3DAnsRWZmmGdfBaJaVgYgN" class=gb4>Sign in</a></nobr></div><div class=gbh style=left:0></div><div class=gbh style=right:0></div> </div><center><br clear="all" id="lgpd"><div id="lga"><a href="/search?site=&amp;ie=UTF-8&amp;q=Ferdinand+Monoyer&amp;oi=ddle&amp;ct=ferdinand-monoyers-181st-birthday-5105939098107904&amp;hl=en-GB&amp;sa=X&amp;ved=0ahUKEwilh8nar-LTAhUCQBoKHcl7BTgQPQgD"><img alt="Ferdinand Monoyer&#8217;s 181st birthday" border="0" height="220" src="/logos/doodles/2017/ferdinand-monoyers-181st-birthday-5105939098107904.2-law.gif" title="Ferdinand Monoyer&#8217;s 181st birthday" width="474" id="hplogo" onload="window.lol&&lol()"><br></a><br></div><form action="/search" name="f"><table cellpadding="0" cellspacing="0"><tr valign="top"><td width="25%">&nbsp;</td><td align="center" nowrap=""><input name="ie" value="ISO-8859-1" type="hidden"><input value="en-GB" name="hl" type="hidden"><input name="source" type="hidden" value="hp"><input name="biw" type="hidden"><input name="bih" type="hidden"><div class="ds" style="height:32px;margin:4px 0"><input style="color:#000;margin:0;padding:5px 8px 0 6px;vertical-align:top" autocomplete="off" class="lst" value="" title="Google Search" maxlength="2048" name="q" size="57"></div><br style="line-height:0"><span class="ds"><span class="lsbb"><input class="lsb" value="Google Search" name="btnG" type="submit"></span></span><span class="ds"><span class="lsbb"><input class="lsb" value="I\'m Feeling Lucky" name="btnI" onclick="if(this.form.q.value)this.checked=1; else top.location=\'/doodles/\'" type="submit"></span></span></td><td class="fl sblc" align="left" nowrap="" width="25%"><a href="/advanced_search?hl=en-GB&amp;authuser=0">Advanced search</a><a href="/language_tools?hl=en-GB&amp;authuser=0">Language tools</a></td></tr></table><input id="gbv" name="gbv" type="hidden" value="1"></form><div id="gac_scont"></div><div style="font-size:83%;min-height:3.5em"><br></div><span id="footer"><div style="font-size:10pt"><div style="margin:19px auto;text-align:center" id="fll"><a href="/intl/en/ads/">Advertising\xa0Programmes</a><a href="/services/">Business Solutions</a><a href="https://plus.google.com/103583604759580854844" rel="publisher">+Google</a><a href="/intl/en/about.html">About Google</a><a href="http://www.google.co.uk/setprefdomain?prefdom=US&amp;sig=__edUpIgtWoaRDZW3wCTNDl9rQYzg%3D" id="fehl">Google.com</a></div></div><p style="color:#767676;font-size:8pt">&copy; 2017 - <a href="/intl/en/policies/privacy/">Privacy</a> - <a href="/intl/en/policies/terms/">Terms</a></p></span></center><script>(function(){window.google.cdo={height:0,width:0};(function(){var a=window.innerWidth,b=window.innerHeight;if(!a||!b)var c=window.document,d="CSS1Compat"==c.compatMode?c.documentElement:c.body,a=d.clientWidth,b=d.clientHeight;a&&b&&(a!=google.cdo.width||b!=google.cdo.height)&&google.log("","","/client_204?&atyp=i&biw="+a+"&bih="+b+"&ei="+google.kEI);}).call(this);})();</script><div id="xjsd"></div><div id="xjsi"><script>(function(){function c(b){window.setTimeout(function(){var a=document.createElement("script");a.src=b;document.getElementById("xjsd").appendChild(a)},0)}google.dljp=function(b,a){google.xjsu=b;c(a)};google.dlj=c;}).call(this);(function(){window.google.xjsrm=[];})();if(google.y)google.y.first=[];if(!google.xjs){window._=window._||{};window._DumpException=window._._DumpException=function(e){throw e};if(google.timers&&google.timers.load.t){google.timers.load.t.xjsls=new Date().getTime();}google.dljp(\'/xjs/_/js/k\\x3dxjs.hp.en_US.xPuR1J9At4U.O/m\\x3dsb_he,d/am\\x3dAAQ/rt\\x3dj/d\\x3d1/t\\x3dzcms/rs\\x3dACT90oEOx26Jn1djhu9_-qVQFR6mn5svgA\',\'/xjs/_/js/k\\x3dxjs.hp.en_US.xPuR1J9At4U.O/m\\x3dsb_he,d/am\\x3dAAQ/rt\\x3dj/d\\x3d1/t\\x3dzcms/rs\\x3dACT90oEOx26Jn1djhu9_-qVQFR6mn5svgA\');google.xjs=1;}google.pmc={"sb_he":{"agen":true,"cgen":true,"client":"heirloom-hp","dh":true,"dhqt":true,"ds":"","fl":true,"host":"google.co.uk","isbh":28,"jam":0,"jsonp":true,"msgs":{"cibl":"Clear Search","dym":"Did you mean:","lcky":"I\\u0026#39;m Feeling Lucky","lml":"Learn more","oskt":"Input tools","psrc":"This search was removed from your \\u003Ca href=\\"/history\\"\\u003EWeb History\\u003C/a\\u003E","psrl":"Remove","sbit":"Search by image","srch":"Google Search"},"nds":true,"ovr":{},"pq":"","refpd":true,"rfs":[],"sbpl":24,"sbpr":24,"scd":10,"sce":5,"stok":"piaiYCUYm3vCiPGUvvTNEddxSA0"},"d":{},"YFCs/g":{}};google.y.first.push(function(){if(google.med){google.med(\'init\');google.initHistory();google.med(\'history\');}});if(google.j&&google.j.en&&google.j.xi){window.setTimeout(google.j.xi,0);}\n</script></div></body></html>'
p57
sS'encoding'
p58
S'ISO-8859-1'
p59
sS'url'
p60
Vhttp://www.google.co.uk/?gfe_rd=cr&ei=AnsRWZmmGdfBaJaVgYgN
p61
sS'status_code'
p62
I200
sS'request'
p63
g0
(crequests.models
PreparedRequest
p64
g2
Ntp65
Rp66
(dp67
S'body'
p68
Nsg60
S'http://www.google.co.uk/?gfe_rd=cr&ei=AnsRWZmmGdfBaJaVgYgN'
p69
sS'hooks'
p70
(dp71
S'response'
p72
(lp73
ssS'headers'
p74
g0
(crequests.structures
CaseInsensitiveDict
p75
g2
Ntp76
Rp77
(dp78
S'_store'
p79
crequests.packages.urllib3.packages.ordered_dict
OrderedDict
p80
((lp81
(lp82
S'connection'
p83
a(S'Connection'
p84
S'keep-alive'
p85
tp86
aa(lp87
S'accept-encoding'
p88
a(S'Accept-Encoding'
p89
S'gzip, deflate'
p90
tp91
aa(lp92
S'accept'
p93
a(S'Accept'
p94
S'*/*'
p95
tp96
aa(lp97
S'user-agent'
p98
a(S'User-Agent'
p99
S'python-requests/2.13.0'
p100
tp101
aatp102
Rp103
sbsS'_body_position'
p104
Nsg27
g0
(g7
g2
Ntp105
Rp106
(dp107
g11
I1494317826
sg12
(icookielib
DefaultCookiePolicy
p108
(dp109
g15
I01
sg16
I0
sg17
Nsg18
Nsg19
I00
sg20
I00
sg11
I1494317826
sg21
I00
sg22
I00
sg23
I00
sg24
I00
sg25
(tsg26
I01
sbsg27
(dp110
sbsS'method'
p111
S'GET'
p112
sbsS'elapsed'
p113
cdatetime
timedelta
p114
(I0
I1
I594901
tp115
Rp116
sg74
g0
(g75
g2
Ntp117
Rp118
(dp119
g79
g80
((lp120
(lp121
S'date'
p122
a(S'Date'
p123
S'Tue, 09 May 2017 08:17:08 GMT'
p124
tp125
aa(lp126
S'expires'
p127
a(S'Expires'
p128
S'-1'
p129
tp130
aa(lp131
S'cache-control'
p132
a(S'Cache-Control'
p133
S'private, max-age=0'
p134
tp135
aa(lp136
S'content-type'
p137
a(S'Content-Type'
p138
S'text/html; charset=ISO-8859-1'
p139
tp140
aa(lp141
S'p3p'
p142
a(S'P3P'
p143
S'CP="This is not a P3P policy! See https://www.google.com/support/accounts/answer/151657?hl=en for more info."'
p144
tp145
aa(lp146
S'content-encoding'
p147
a(S'Content-Encoding'
p148
S'gzip'
p149
tp150
aa(lp151
S'server'
p152
a(S'Server'
p153
S'gws'
p154
tp155
aa(lp156
S'content-length'
p157
a(S'Content-Length'
p158
S'4681'
p159
tp160
aa(lp161
S'x-xss-protection'
p162
a(S'X-XSS-Protection'
p163
S'1; mode=block'
p164
tp165
aa(lp166
S'x-frame-options'
p167
a(S'X-Frame-Options'
p168
S'SAMEORIGIN'
p169
tp170
aa(lp171
S'set-cookie'
p172
a(S'Set-Cookie'
p173
S'NID=103=b2jNDpAo9zF3Hm0VkiD-uxBviYeUC_4j9DiAgc7rza-H6saYTRW-c1nDRkA_9tToeO3pLdVq68o4KQLWix7-0x2u0numS662bdYZ2llz-H2Akt9QuudMccExCdHV5oLO; expires=Wed, 08-Nov-2017 08:17:08 GMT; path=/; domain=.google.co.uk; HttpOnly'
p174
tp175
aatp176
Rp177
sbsS'reason'
p178
S'OK'
p179
sS'history'
p180
(lp181
g0
(g1
g2
Ntp182
Rp183
(dp184
g6
g0
(g7
g2
Ntp185
Rp186
(dp187
g11
I1494317826
sg12
(icookielib
DefaultCookiePolicy
p188
(dp189
g15
I01
sg16
I0
sg17
Nsg18
Nsg19
I00
sg20
I00
sg11
I1494317826
sg21
I00
sg22
I00
sg23
I00
sg24
I00
sg25
(tsg26
I01
sbsg27
(dp190
sbsg56
S'<HTML><HEAD><meta http-equiv="content-type" content="text/html;charset=utf-8">\n<TITLE>302 Moved</TITLE></HEAD><BODY>\n<H1>302 Moved</H1>\nThe document has moved\n<A HREF="http://www.google.co.uk/?gfe_rd=cr&amp;ei=AnsRWZmmGdfBaJaVgYgN">here</A>.\r\n</BODY></HTML>\r\n'
p191
sg58
S'UTF-8'
p192
sg60
Vhttp://www.google.com/
p193
sg62
I302
sg63
g0
(g64
g2
Ntp194
Rp195
(dp196
g68
Nsg60
S'http://www.google.com/'
p197
sg70
g71
sg74
g0
(g75
g2
Ntp198
Rp199
(dp200
g79
g80
((lp201
(lp202
S'connection'
p203
a(g84
g85
tp204
aa(lp205
S'accept-encoding'
p206
a(g89
g90
tp207
aa(lp208
S'accept'
p209
a(g94
g95
tp210
aa(lp211
S'user-agent'
p212
a(g99
g100
tp213
aatp214
Rp215
sbsg104
Nsg27
g0
(g7
g2
Ntp216
Rp217
(dp218
g11
I1494317823
sg12
(icookielib
DefaultCookiePolicy
p219
(dp220
g15
I01
sg16
I0
sg17
Nsg18
Nsg19
I00
sg20
I00
sg11
I1494317823
sg21
I00
sg22
I00
sg23
I00
sg24
I00
sg25
(tsg26
I01
sbsg27
(dp221
sbsg111
S'GET'
p222
sbsg113
g114
(I0
I2
I511700
tp223
Rp224
sg74
g0
(g75
g2
Ntp225
Rp226
(dp227
g79
g80
((lp228
(lp229
S'cache-control'
p230
a(S'Cache-Control'
p231
S'private'
p232
tp233
aa(lp234
S'content-type'
p235
a(S'Content-Type'
p236
S'text/html; charset=UTF-8'
p237
tp238
aa(lp239
S'referrer-policy'
p240
a(S'Referrer-Policy'
p241
S'no-referrer'
p242
tp243
aa(lp244
S'location'
p245
a(S'Location'
p246
S'http://www.google.co.uk/?gfe_rd=cr&ei=AnsRWZmmGdfBaJaVgYgN'
p247
tp248
aa(lp249
S'content-length'
p250
a(S'Content-Length'
p251
S'259'
p252
tp253
aa(lp254
S'date'
p255
a(S'Date'
p256
S'Tue, 09 May 2017 08:17:06 GMT'
p257
tp258
aatp259
Rp260
sbsg178
S'Found'
p261
sg180
(lp262
sbasb.