Certificate:
    Data:
        Version: 3 (0x2)
        Serial Number: 268435674 (0x100000da)
    Signature Algorithm: sha256WithRSAEncryption
        Issuer: C=DE, ST=Hessen, O=privacyidea, CN=CA001
        Validity
            Not Before: May  3 20:05:27 2017 GMT
            Not After : May  3 20:05:27 2018 GMT
        Subject: C=DE, ST=Hessen, O=privacyidea, CN=usercert
        Subject Public Key Info:
            Public Key Algorithm: rsaEncryption
                Public-Key: (2048 bit)
                Modulus:
                    00:dc:2f:d1:5f:29:97:d4:7c:c3:53:c8:30:bd:4b:
                    67:70:2c:24:6b:b8:5e:eb:21:7a:48:12:56:7c:81:
                    5c:48:75:b6:68:eb:f6:f2:98:4e:50:51:d1:7f:6c:
                    73:f3:0a:a7:ae:be:48:5e:e5:d6:e1:d9:2a:7c:32:
                    6e:4e:fd:08:f6:5a:54:49:23:73:c3:b9:07:18:d1:
                    ef:b3:ac:f8:8a:dc:94:96:a4:90:3a:8e:74:df:e6:
                    0d:37:1b:bd:5b:b7:25:1a:56:39:da:6f:91:aa:5e:
                    1c:74:f3:f9:7c:14:01:83:12:65:76:c7:bb:fe:36:
                    5b:95:e9:72:65:83:ed:3e:98:30:71:fa:87:dd:a3:
                    36:5a:30:03:2e:26:e0:61:d1:bf:02:3f:b6:06:1f:
                    4a:89:28:1c:5c:a2:ff:4e:be:94:e6:8c:e0:da:82:
                    f1:9d:29:32:48:30:73:b4:04:f6:42:1e:be:f7:e2:
                    32:32:27:3c:9d:89:2f:70:3e:85:9a:6f:5c:c5:09:
                    c0:8c:32:2f:72:22:c9:d2:95:1f:b6:ac:72:60:72:
                    b7:82:4d:6b:ce:5b:e3:00:d0:d2:2f:58:c6:e0:10:
                    e5:51:ca:4d:3b:2e:e6:7e:ab:84:d6:56:f1:93:35:
                    a0:93:64:26:81:75:2f:91:b5:16:06:38:0b:db:cc:
                    2d:07
                Exponent: 65537 (0x10001)
        X509v3 extensions:
            X509v3 Key Usage: 
                Digital Signature, Key Encipherment
            X509v3 Basic Constraints: 
                CA:FALSE
            Netscape Cert Type: 
                SSL Server
            Netscape Comment: 
                OpenSSL Generated Server Certificate
            X509v3 Subject Key Identifier: 
                FC:14:D1:F0:4B:8D:00:90:F2:F5:B8:71:9E:4E:97:C3:92:54:AD:0B
            X509v3 Authority Key Identifier: 
                keyid:F4:A7:C0:CC:91:46:AF:64:F3:91:F2:27:F8:C8:B2:6F:8A:87:32:73
                DirName:/C=DE/ST=Hessen/O=privacyidea/CN=CA001
                serial:FB:C8:EB:AC:83:CD:12:07

            X509v3 Extended Key Usage: 
                TLS Web Server Authentication
    Signature Algorithm: sha256WithRSAEncryption
         4d:15:f5:dd:f8:ff:16:e3:d9:00:9a:a2:20:1a:18:5e:96:54:
         13:a2:12:d7:b0:8d:2c:40:7d:f9:72:4b:75:02:c8:bf:70:02:
         08:f5:46:b1:ec:4d:3d:10:22:63:4b:29:47:d1:7d:32:e0:c8:
         1c:b0:cc:b4:06:de:47:ac:be:3c:09:98:34:8a:18:bc:54:ae:
         fe:f4:0b:ab:62:fc:37:96:bd:41:08:04:ed:33:0e:07:6f:36:
         e0:e9:5a:7a:81:47:66:54:08:27:fa:20:af:e1:d6:d2:57:e5:
         d8:6b:6d:45:2f:ea:0b:40:bc:33:8b:30:1e:8e:63:63:23:b3:
         10:cf:86:b6:2f:9b:b1:84:3f:94:99:02:f9:2b:80:50:03:32:
         48:b9:7c:33:a2:d6:7d:46:9f:62:cb:a9:ad:9c:7c:6d:60:83:
         ad:bd:a9:d0:a4:cd:63:98:56:1c:ee:57:9f:54:04:4c:fd:b9:
         3b:7e:20:dd:80:49:92:be:fb:73:50:8d:e4:0d:8d:30:e8:95:
         4a:6f:54:2e:7a:c7:43:95:df:47:20:a2:f8:ad:20:a1:f6:4a:
         56:6d:dc:e8:ea:eb:a5:4a:e6:03:8c:d8:10:45:f8:c7:55:8e:
         6f:d1:5e:3e:05:af:67:31:26:ce:96:66:7b:f0:d9:c2:a3:1d:
         f8:18:2f:cf
-----BEGIN CERTIFICATE-----
MIIEGTCCAwGgAwIBAgIEEAAA2jANBgkqhkiG9w0BAQsFADBEMQswCQYDVQQGEwJE
RTEPMA0GA1UECAwGSGVzc2VuMRQwEgYDVQQKDAtwcml2YWN5aWRlYTEOMAwGA1UE
AwwFQ0EwMDEwHhcNMTcwNTAzMjAwNTI3WhcNMTgwNTAzMjAwNTI3WjBHMQswCQYD
VQQGEwJERTEPMA0GA1UECAwGSGVzc2VuMRQwEgYDVQQKDAtwcml2YWN5aWRlYTER
MA8GA1UEAwwIdXNlcmNlcnQwggEiMA0GCSqGSIb3DQEBAQUAA4IBDwAwggEKAoIB
AQDcL9FfKZfUfMNTyDC9S2dwLCRruF7rIXpIElZ8gVxIdbZo6/bymE5QUdF/bHPz
Cqeuvkhe5dbh2Sp8Mm5O/Qj2WlRJI3PDuQcY0e+zrPiK3JSWpJA6jnTf5g03G71b
tyUaVjnab5GqXhx08/l8FAGDEmV2x7v+NluV6XJlg+0+mDBx+ofdozZaMAMuJuBh
0b8CP7YGH0qJKBxcov9OvpTmjODagvGdKTJIMHO0BPZCHr734jIyJzydiS9wPoWa
b1zFCcCMMi9yIsnSlR+2rHJgcreCTWvOW+MA0NIvWMbgEOVRyk07LuZ+q4TWVvGT
NaCTZCaBdS+RtRYGOAvbzC0HAgMBAAGjggEOMIIBCjALBgNVHQ8EBAMCBaAwCQYD
VR0TBAIwADARBglghkgBhvhCAQEEBAMCBkAwMwYJYIZIAYb4QgENBCYWJE9wZW5T
U0wgR2VuZXJhdGVkIFNlcnZlciBDZXJ0aWZpY2F0ZTAdBgNVHQ4EFgQU/BTR8EuN
AJDy9bhxnk6Xw5JUrQswdAYDVR0jBG0wa4AU9KfAzJFGr2TzkfIn+Miyb4qHMnOh
SKRGMEQxCzAJBgNVBAYTAkRFMQ8wDQYDVQQIDAZIZXNzZW4xFDASBgNVBAoMC3By
aXZhY3lpZGVhMQ4wDAYDVQQDDAVDQTAwMYIJAPvI66yDzRIHMBMGA1UdJQQMMAoG
CCsGAQUFBwMBMA0GCSqGSIb3DQEBCwUAA4IBAQBNFfXd+P8W49kAmqIgGhhellQT
ohLXsI0sQH35ckt1Asi/cAII9Uax7E09ECJjSylH0X0y4MgcsMy0Bt5HrL48CZg0
ihi8VK7+9AurYvw3lr1BCATtMw4Hbzbg6Vp6gUdmVAgn+iCv4dbSV+XYa21FL+oL
QLwzizAejmNjI7MQz4a2L5uxhD+UmQL5K4BQAzJIuXwzotZ9Rp9iy6mtnHxtYIOt
vanQpM1jmFYc7lefVARM/bk7fiDdgEmSvvtzUI3kDY0w6JVKb1QuesdDld9HIKL4
rSCh9kpWbdzo6uulSuYDjNgQRfjHVY5v0V4+Ba9nMSbOlmZ78NnCox34GC/P
-----END CERTIFICATE-----
