Certificate:
    Data:
        Version: 3 (0x2)
        Serial Number: 268435665 (0x100000d1)
    Signature Algorithm: sha256WithRSAEncryption
        Issuer: C=DE, ST=Hessen, O=privacyidea, CN=CA001
        Validity
            Not Before: Jul  2 05:59:53 2017 GMT
            Not After : Jul  2 05:59:53 2018 GMT
        Subject: C=DE, ST=Hessen, O=privacyidea, CN=requester.localdomain
        Subject Public Key Info:
            Public Key Algorithm: rsaEncryption
                Public-Key: (2048 bit)
                Modulus:
                    00:cd:be:14:4f:fa:ce:01:3f:42:22:1b:1d:9c:af:
                    dd:92:d2:7f:db:6c:b7:3e:39:43:43:6b:13:03:f1:
                    05:f4:07:74:bc:76:69:28:0b:af:19:8e:d7:fc:e3:
                    cd:c6:58:f2:ca:7f:08:6d:53:fc:07:02:44:24:c6:
                    b4:34:4c:8c:04:fe:33:0e:40:e2:20:ba:02:73:5a:
                    f7:f5:4f:63:6e:cc:c6:b6:df:54:1d:37:39:7d:51:
                    36:26:5f:bd:dc:3f:a8:8b:6b:a2:ae:b6:9d:d6:21:
                    e7:df:41:b8:7a:28:2a:68:48:ca:a8:2d:ed:e1:e9:
                    46:5e:5a:72:6d:b4:84:38:87:91:fd:94:11:0b:28:
                    84:c6:c2:2f:2a:fb:01:f9:36:7a:09:75:d1:33:88:
                    3c:73:41:5b:c8:bf:94:89:70:a1:f0:c0:b9:2e:50:
                    53:1e:b1:17:64:69:f4:2d:81:e0:a9:0d:0e:32:e9:
                    ba:55:8a:85:f1:1b:6f:49:79:b4:7f:88:c3:0d:3e:
                    54:88:9b:3d:1f:38:8c:04:f3:ee:6a:63:2b:f5:c6:
                    db:b4:83:aa:c4:78:41:3a:7d:4b:e1:c8:3e:71:ca:
                    1b:61:59:ea:c6:c4:ca:32:5e:c9:e9:bf:12:29:e6:
                    c6:c3:63:fe:a0:55:da:7a:f1:60:98:4d:26:ed:fa:
                    70:2d
                Exponent: 65537 (0x10001)
        X509v3 extensions:
            X509v3 Key Usage: 
                Digital Signature, Key Encipherment
            X509v3 Basic Constraints: 
                CA:FALSE
            Netscape Cert Type: 
                SSL Server
            Netscape Comment: 
                OpenSSL Generated Server Certificate
            X509v3 Subject Key Identifier: 
                53:3F:ED:5D:09:07:B3:65:7B:AB:45:C9:24:5B:09:77:80:0A:96:ED
            X509v3 Authority Key Identifier: 
                keyid:F4:A7:C0:CC:91:46:AF:64:F3:91:F2:27:F8:C8:B2:6F:8A:87:32:73
                DirName:/C=DE/ST=Hessen/O=privacyidea/CN=CA001
                serial:FB:C8:EB:AC:83:CD:12:07

            X509v3 Extended Key Usage: 
                TLS Web Server Authentication
    Signature Algorithm: sha256WithRSAEncryption
         35:df:cc:97:6a:3d:ae:2c:22:d0:5c:6d:93:ee:2b:bb:80:c5:
         58:93:3d:eb:de:05:db:72:87:16:52:a5:65:f5:31:05:69:13:
         39:2d:ee:18:76:ef:26:90:a4:f7:2a:d5:fb:b8:6d:c8:fa:4e:
         45:c0:58:6e:07:ab:00:5e:8b:04:0d:2e:c3:77:da:ef:dc:94:
         9d:75:54:fd:d2:3e:45:f5:ec:db:a6:0a:53:11:58:4f:b7:76:
         6c:1d:9f:ac:15:fb:f4:f4:6f:3f:6a:b4:eb:6b:79:ae:d2:05:
         4d:c5:9a:c6:b1:b8:50:34:c1:f6:31:8c:9c:9a:9f:f1:64:63:
         a2:99:a5:bb:ab:dc:99:9f:ad:2e:14:b1:0c:6b:12:8d:d3:5b:
         d1:a4:f2:31:e1:a9:17:38:65:77:11:72:0f:59:2e:53:b3:89:
         07:ab:e1:4a:3b:98:b2:7e:61:79:54:48:8f:72:12:6a:aa:02:
         5e:4e:14:a5:51:36:d9:7d:1d:37:6b:a6:29:84:46:1e:a5:df:
         aa:50:c5:32:12:51:71:f2:78:95:8c:ff:fb:2f:f6:bf:ac:ec:
         02:22:73:73:ef:3c:d8:ef:c6:f2:b8:80:e6:cb:61:e8:72:65:
         b2:04:8f:b9:54:7d:35:6a:e8:a0:cd:8b:24:72:07:8d:a7:45:
         ba:28:e7:53
-----BEGIN CERTIFICATE-----
MIIEJjCCAw6gAwIBAgIEEAAA0TANBgkqhkiG9w0BAQsFADBEMQswCQYDVQQGEwJE
RTEPMA0GA1UECAwGSGVzc2VuMRQwEgYDVQQKDAtwcml2YWN5aWRlYTEOMAwGA1UE
AwwFQ0EwMDEwHhcNMTcwNzAyMDU1OTUzWhcNMTgwNzAyMDU1OTUzWjBUMQswCQYD
VQQGEwJERTEPMA0GA1UECAwGSGVzc2VuMRQwEgYDVQQKDAtwcml2YWN5aWRlYTEe
MBwGA1UEAwwVcmVxdWVzdGVyLmxvY2FsZG9tYWluMIIBIjANBgkqhkiG9w0BAQEF
AAOCAQ8AMIIBCgKCAQEAzb4UT/rOAT9CIhsdnK/dktJ/22y3PjlDQ2sTA/EF9Ad0
vHZpKAuvGY7X/OPNxljyyn8IbVP8BwJEJMa0NEyMBP4zDkDiILoCc1r39U9jbszG
tt9UHTc5fVE2Jl+93D+oi2uirrad1iHn30G4eigqaEjKqC3t4elGXlpybbSEOIeR
/ZQRCyiExsIvKvsB+TZ6CXXRM4g8c0FbyL+UiXCh8MC5LlBTHrEXZGn0LYHgqQ0O
Mum6VYqF8RtvSXm0f4jDDT5UiJs9HziMBPPuamMr9cbbtIOqxHhBOn1L4cg+ccob
YVnqxsTKMl7J6b8SKebGw2P+oFXaevFgmE0m7fpwLQIDAQABo4IBDjCCAQowCwYD
VR0PBAQDAgWgMAkGA1UdEwQCMAAwEQYJYIZIAYb4QgEBBAQDAgZAMDMGCWCGSAGG
+EIBDQQmFiRPcGVuU1NMIEdlbmVyYXRlZCBTZXJ2ZXIgQ2VydGlmaWNhdGUwHQYD
VR0OBBYEFFM/7V0JB7Nle6tFySRbCXeACpbtMHQGA1UdIwRtMGuAFPSnwMyRRq9k
85HyJ/jIsm+KhzJzoUikRjBEMQswCQYDVQQGEwJERTEPMA0GA1UECAwGSGVzc2Vu
MRQwEgYDVQQKDAtwcml2YWN5aWRlYTEOMAwGA1UEAwwFQ0EwMDGCCQD7yOusg80S
BzATBgNVHSUEDDAKBggrBgEFBQcDATANBgkqhkiG9w0BAQsFAAOCAQEANd/Ml2o9
riwi0Fxtk+4ru4DFWJM9694F23KHFlKlZfUxBWkTOS3uGHbvJpCk9yrV+7htyPpO
RcBYbgerAF6LBA0uw3fa79yUnXVU/dI+RfXs26YKUxFYT7d2bB2frBX79PRvP2q0
62t5rtIFTcWaxrG4UDTB9jGMnJqf8WRjopmlu6vcmZ+tLhSxDGsSjdNb0aTyMeGp
FzhldxFyD1kuU7OJB6vhSjuYsn5heVRIj3ISaqoCXk4UpVE22X0dN2umKYRGHqXf
qlDFMhJRcfJ4lYz/+y/2v6zsAiJzc+882O/G8riA5sth6HJlsgSPuVR9NWrooM2L
JHIHjadFuijnUw==
-----END CERTIFICATE-----
