Certificate:
    Data:
        Version: 3 (0x2)
        Serial Number: 268435672 (0x100000d8)
    Signature Algorithm: sha256WithRSAEncryption
        Issuer: C=DE, ST=Hessen, O=privacyidea, CN=CA001
        Validity
            Not Before: May  5 18:02:12 2017 GMT
            Not After : May  5 18:02:12 2018 GMT
        Subject: OU=realm1, CN=cornelius/emailAddress=user@localhost.localdomain
        Subject Public Key Info:
            Public Key Algorithm: rsaEncryption
                Public-Key: (2048 bit)
                Modulus:
                    00:c4:41:81:67:9b:10:84:fa:06:8d:39:b1:37:9d:
                    c9:f9:09:40:e9:07:d3:55:49:25:fd:f1:47:f2:1d:
                    c4:e3:dc:d1:1d:04:13:40:8b:12:bc:6e:40:db:45:
                    4f:e2:cb:d8:62:65:9e:e4:33:c6:be:e6:2b:78:b4:
                    58:ae:e2:3c:0c:1d:ab:40:50:f3:96:12:24:3d:56:
                    bd:c9:ab:b6:65:96:aa:36:7a:79:92:ce:a9:8c:d8:
                    e1:03:3a:7d:db:d3:71:38:d1:d1:ea:94:2a:76:0d:
                    4a:6c:64:8b:8b:67:01:9e:37:51:9c:5b:72:0d:25:
                    c3:5b:7f:c1:89:83:d9:9a:c9:ce:3d:9c:b6:70:46:
                    91:da:3b:0a:bf:aa:7f:a8:99:1d:93:b9:3b:b9:5a:
                    15:36:ba:73:38:0c:63:38:48:e8:f1:66:99:10:eb:
                    20:b0:35:1e:5a:2a:ee:45:b3:d0:c1:74:91:f0:0c:
                    4d:1c:0a:3d:48:5c:eb:ca:e3:3c:a9:b7:5c:d2:40:
                    aa:04:24:28:27:97:61:5a:99:ab:b7:cb:97:dd:47:
                    3c:c4:92:63:07:3b:31:34:62:f0:9f:24:04:9e:16:
                    04:7c:dd:d9:c2:d5:f8:de:13:5b:f0:20:49:f7:11:
                    2c:63:0f:d8:d3:0d:4e:52:04:d6:3b:c7:5c:5d:f7:
                    f9:2d
                Exponent: 65537 (0x10001)
        X509v3 extensions:
            X509v3 Key Usage: 
                Digital Signature, Key Encipherment
            X509v3 Basic Constraints: 
                CA:FALSE
            Netscape Cert Type: 
                SSL Server
            Netscape Comment: 
                OpenSSL Generated Server Certificate
            X509v3 Subject Key Identifier: 
                92:E0:C3:DC:01:88:9E:5A:DE:FF:45:7C:19:27:DC:DF:E0:BD:CA:C3
            X509v3 Authority Key Identifier: 
                keyid:F4:A7:C0:CC:91:46:AF:64:F3:91:F2:27:F8:C8:B2:6F:8A:87:32:73
                DirName:/C=DE/ST=Hessen/O=privacyidea/CN=CA001
                serial:FB:C8:EB:AC:83:CD:12:07

            X509v3 Extended Key Usage: 
                TLS Web Server Authentication
    Signature Algorithm: sha256WithRSAEncryption
         7a:ab:15:d3:7b:19:98:e4:e0:ea:0d:86:47:46:41:05:63:37:
         71:45:c8:bc:65:5d:c3:56:e2:f6:1a:73:14:a4:bc:1d:a9:3d:
         29:ff:63:ea:d6:db:54:ed:5d:fb:6c:95:55:10:ab:c3:09:21:
         5d:64:25:42:b7:35:06:c5:05:e8:8a:f8:52:d7:8a:e6:4c:22:
         90:31:7e:b1:4d:50:31:49:c1:95:32:14:db:53:e0:4f:91:7d:
         8a:49:ac:ad:d7:cf:f8:3b:25:8e:0e:04:e0:a2:13:bf:2c:3f:
         b7:7e:94:2e:04:5a:00:8b:9f:26:0c:11:08:ac:01:88:4d:9d:
         ae:16:51:fa:a7:e1:26:5e:ba:b7:9b:c5:b7:b6:01:48:b8:dc:
         43:c4:fe:f1:8a:3c:c4:ed:6f:9c:27:4f:96:02:3d:d2:59:0e:
         d6:b3:a9:2c:29:19:9e:2e:51:07:da:7b:81:6d:32:9c:e9:17:
         d4:fc:51:66:8c:2e:b1:9b:cf:5c:93:28:75:07:d0:d3:f0:e0:
         94:64:6a:cb:51:f3:e6:72:1c:68:a9:b2:72:a5:c5:3e:77:44:
         c6:24:40:9e:0e:8c:0e:2e:07:3d:c5:a1:18:58:1e:35:08:11:
         09:8f:b4:95:ef:c3:9f:60:d8:b5:0d:0c:1e:6e:2a:05:6e:66:
         13:b8:1a:9b
-----BEGIN CERTIFICATE-----
MIIEIjCCAwqgAwIBAgIEEAAA2DANBgkqhkiG9w0BAQsFADBEMQswCQYDVQQGEwJE
RTEPMA0GA1UECAwGSGVzc2VuMRQwEgYDVQQKDAtwcml2YWN5aWRlYTEOMAwGA1UE
AwwFQ0EwMDEwHhcNMTcwNTA1MTgwMjEyWhcNMTgwNTA1MTgwMjEyWjBQMQ8wDQYD
VQQLDAZyZWFsbTExEjAQBgNVBAMMCWNvcm5lbGl1czEpMCcGCSqGSIb3DQEJARYa
dXNlckBsb2NhbGhvc3QubG9jYWxkb21haW4wggEiMA0GCSqGSIb3DQEBAQUAA4IB
DwAwggEKAoIBAQDEQYFnmxCE+gaNObE3ncn5CUDpB9NVSSX98UfyHcTj3NEdBBNA
ixK8bkDbRU/iy9hiZZ7kM8a+5it4tFiu4jwMHatAUPOWEiQ9Vr3Jq7Zllqo2enmS
zqmM2OEDOn3b03E40dHqlCp2DUpsZIuLZwGeN1GcW3INJcNbf8GJg9mayc49nLZw
RpHaOwq/qn+omR2TuTu5WhU2unM4DGM4SOjxZpkQ6yCwNR5aKu5Fs9DBdJHwDE0c
Cj1IXOvK4zypt1zSQKoEJCgnl2Famau3y5fdRzzEkmMHOzE0YvCfJASeFgR83dnC
1fjeE1vwIEn3ESxjD9jTDU5SBNY7x1xd9/ktAgMBAAGjggEOMIIBCjALBgNVHQ8E
BAMCBaAwCQYDVR0TBAIwADARBglghkgBhvhCAQEEBAMCBkAwMwYJYIZIAYb4QgEN
BCYWJE9wZW5TU0wgR2VuZXJhdGVkIFNlcnZlciBDZXJ0aWZpY2F0ZTAdBgNVHQ4E
FgQUkuDD3AGInlre/0V8GSfc3+C9ysMwdAYDVR0jBG0wa4AU9KfAzJFGr2TzkfIn
+Miyb4qHMnOhSKRGMEQxCzAJBgNVBAYTAkRFMQ8wDQYDVQQIDAZIZXNzZW4xFDAS
BgNVBAoMC3ByaXZhY3lpZGVhMQ4wDAYDVQQDDAVDQTAwMYIJAPvI66yDzRIHMBMG
A1UdJQQMMAoGCCsGAQUFBwMBMA0GCSqGSIb3DQEBCwUAA4IBAQB6qxXTexmY5ODq
DYZHRkEFYzdxRci8ZV3DVuL2GnMUpLwdqT0p/2Pq1ttU7V37bJVVEKvDCSFdZCVC
tzUGxQXoivhS14rmTCKQMX6xTVAxScGVMhTbU+BPkX2KSayt18/4OyWODgTgohO/
LD+3fpQuBFoAi58mDBEIrAGITZ2uFlH6p+EmXrq3m8W3tgFIuNxDxP7xijzE7W+c
J0+WAj3SWQ7Ws6ksKRmeLlEH2nuBbTKc6RfU/FFmjC6xm89ckyh1B9DT8OCUZGrL
UfPmchxoqbJypcU+d0TGJECeDowOLgc9xaEYWB41CBEJj7SV78OfYNi1DQwebioF
bmYTuBqb
-----END CERTIFICATE-----
