Certificate:
    Data:
        Version: 3 (0x2)
        Serial Number: 268435676 (0x100000dc)
    Signature Algorithm: sha256WithRSAEncryption
        Issuer: C=DE, ST=Hessen, O=privacyidea, CN=CA001
        Validity
            Not Before: May  3 20:05:27 2017 GMT
            Not After : May 23 20:05:27 2019 GMT
        Subject: CN=Steve Test/emailAddress=steve@openssl.org
        Subject Public Key Info:
            Public Key Algorithm: rsaEncryption
                Public-Key: (2048 bit)
                Modulus:
                    00:d2:81:89:20:51:48:0f:73:f4:11:32:24:d5:1f:
                    1c:fd:5c:f5:b6:e6:c5:f0:52:81:dc:d2:af:66:4a:
                    7c:93:31:61:5c:af:d1:6d:06:70:03:60:7c:72:0c:
                    88:dd:49:cd:9e:02:6c:d2:5a:d7:53:0f:f3:da:be:
                    69:64:b5:0f:0c:00:e3:b3:50:47:a3:b3:9b:ba:13:
                    50:d6:58:5a:4b:ab:39:e0:11:ca:0a:27:67:03:78:
                    22:66:6d:92:1e:1b:5c:49:ae:e6:6b:d1:8e:3b:9d:
                    06:d3:c6:ac:4d:53:43:10:ab:e8:96:c1:87:82:97:
                    99:8f:20:d3:99:12:37:31:84:e1:8a:ff:29:03:5f:
                    22:90:3e:7f:9b:e0:20:c1:ad:dc:ae:4c:39:1a:31:
                    96:17:02:8c:b2:d9:b4:0d:20:12:9b:7d:86:54:fd:
                    33:fd:c1:2a:62:46:f8:60:96:cf:6e:01:6f:22:df:
                    13:47:e7:97:ec:05:72:23:a3:62:f8:fa:ef:ac:9c:
                    72:f0:37:cb:2f:37:cf:90:a8:27:51:86:c6:d7:78:
                    08:8f:7e:25:a2:15:70:a2:fb:1c:b6:15:5e:a0:97:
                    8b:81:4c:09:28:8a:27:3b:94:bc:71:db:5b:71:37:
                    9a:2b:16:e0:6f:b5:c9:f5:4b:4f:20:ba:65:cf:af:
                    ad:ad
                Exponent: 65537 (0x10001)
        X509v3 extensions:
            X509v3 Key Usage: 
                Digital Signature, Key Encipherment
            X509v3 Basic Constraints: 
                CA:FALSE
            Netscape Cert Type: 
                SSL Server
            Netscape Comment: 
                OpenSSL Generated Server Certificate
            X509v3 Subject Key Identifier: 
                E5:25:6D:3E:AF:0D:DD:3F:4C:F2:45:19:39:D5:14:DB:7E:9C:C0:AD
            X509v3 Authority Key Identifier: 
                keyid:F4:A7:C0:CC:91:46:AF:64:F3:91:F2:27:F8:C8:B2:6F:8A:87:32:73
                DirName:/C=DE/ST=Hessen/O=privacyidea/CN=CA001
                serial:FB:C8:EB:AC:83:CD:12:07

            X509v3 Extended Key Usage: 
                TLS Web Server Authentication
    Signature Algorithm: sha256WithRSAEncryption
         07:39:9d:46:4a:03:a1:1a:18:5a:10:c0:29:de:15:c9:35:a7:
         66:6b:5f:ac:32:7f:59:fe:1e:26:e6:32:78:3e:de:f2:d9:fe:
         c6:56:99:59:83:73:03:aa:8a:d7:30:b0:87:21:70:f0:1d:c6:
         53:b4:2d:f0:c9:27:65:56:c9:6a:6b:5c:d7:58:e5:d3:a4:02:
         05:4c:32:a9:86:60:9b:93:bc:75:6a:35:16:16:4d:76:2d:44:
         a1:26:9d:01:e5:d9:51:e9:6d:b4:e6:0f:23:10:82:5f:5d:b2:
         cd:86:7a:96:75:87:9c:bc:ee:21:71:37:08:ea:90:7a:cf:ac:
         a3:56:b6:df:73:ed:73:60:a6:47:de:41:82:96:7d:bb:c0:1b:
         ea:f9:2d:ce:85:9b:ca:69:60:09:7d:55:8f:1e:5e:57:4e:10:
         87:4e:2d:8a:7c:4e:65:e4:2c:08:c1:92:1f:22:49:2d:52:ff:
         08:48:f9:2d:81:76:76:7f:78:f5:89:b5:b1:ed:2f:0f:7d:a6:
         b1:98:d0:2c:fe:61:c6:ad:56:42:92:cc:59:7a:74:33:55:9f:
         34:7c:29:61:29:a0:76:ec:20:44:6f:8e:c0:96:12:95:96:5b:
         a5:82:21:67:5e:89:e4:b4:94:04:59:79:13:40:05:bf:1f:1f:
         19:c5:19:ce
-----BEGIN CERTIFICATE-----
MIIECTCCAvGgAwIBAgIEEAAA3DANBgkqhkiG9w0BAQsFADBEMQswCQYDVQQGEwJE
RTEPMA0GA1UECAwGSGVzc2VuMRQwEgYDVQQKDAtwcml2YWN5aWRlYTEOMAwGA1UE
AwwFQ0EwMDEwHhcNMTcwNTAzMjAwNTI3WhcNMTkwNTIzMjAwNTI3WjA3MRMwEQYD
VQQDDApTdGV2ZSBUZXN0MSAwHgYJKoZIhvcNAQkBFhFzdGV2ZUBvcGVuc3NsLm9y
ZzCCASIwDQYJKoZIhvcNAQEBBQADggEPADCCAQoCggEBANKBiSBRSA9z9BEyJNUf
HP1c9bbmxfBSgdzSr2ZKfJMxYVyv0W0GcANgfHIMiN1JzZ4CbNJa11MP89q+aWS1
DwwA47NQR6Ozm7oTUNZYWkurOeARygonZwN4ImZtkh4bXEmu5mvRjjudBtPGrE1T
QxCr6JbBh4KXmY8g05kSNzGE4Yr/KQNfIpA+f5vgIMGt3K5MORoxlhcCjLLZtA0g
Ept9hlT9M/3BKmJG+GCWz24BbyLfE0fnl+wFciOjYvj676yccvA3yy83z5CoJ1GG
xtd4CI9+JaIVcKL7HLYVXqCXi4FMCSiKJzuUvHHbW3E3misW4G+1yfVLTyC6Zc+v
ra0CAwEAAaOCAQ4wggEKMAsGA1UdDwQEAwIFoDAJBgNVHRMEAjAAMBEGCWCGSAGG
+EIBAQQEAwIGQDAzBglghkgBhvhCAQ0EJhYkT3BlblNTTCBHZW5lcmF0ZWQgU2Vy
dmVyIENlcnRpZmljYXRlMB0GA1UdDgQWBBTlJW0+rw3dP0zyRRk51RTbfpzArTB0
BgNVHSMEbTBrgBT0p8DMkUavZPOR8if4yLJviocyc6FIpEYwRDELMAkGA1UEBhMC
REUxDzANBgNVBAgMBkhlc3NlbjEUMBIGA1UECgwLcHJpdmFjeWlkZWExDjAMBgNV
BAMMBUNBMDAxggkA+8jrrIPNEgcwEwYDVR0lBAwwCgYIKwYBBQUHAwEwDQYJKoZI
hvcNAQELBQADggEBAAc5nUZKA6EaGFoQwCneFck1p2ZrX6wyf1n+HibmMng+3vLZ
/sZWmVmDcwOqitcwsIchcPAdxlO0LfDJJ2VWyWprXNdY5dOkAgVMMqmGYJuTvHVq
NRYWTXYtRKEmnQHl2VHpbbTmDyMQgl9dss2GepZ1h5y87iFxNwjqkHrPrKNWtt9z
7XNgpkfeQYKWfbvAG+r5Lc6Fm8ppYAl9VY8eXldOEIdOLYp8TmXkLAjBkh8iSS1S
/whI+S2BdnZ/ePWJtbHtLw99prGY0Cz+YcatVkKSzFl6dDNVnzR8KWEpoHbsIERv
jsCWEpWWW6WCIWdeieS0lARZeRNABb8fHxnFGc4=
-----END CERTIFICATE-----
