Certificate:
    Data:
        Version: 3 (0x2)
        Serial Number: 268435678 (0x100000de)
    Signature Algorithm: sha256WithRSAEncryption
        Issuer: C=DE, ST=Hessen, O=privacyidea, CN=CA001
        Validity
            Not Before: May  3 20:08:48 2017 GMT
            Not After : May  3 20:08:48 2018 GMT
        Subject: OU=realm1, CN=cornelius/emailAddress=user@localhost.localdomain
        Subject Public Key Info:
            Public Key Algorithm: rsaEncryption
                Public-Key: (2048 bit)
                Modulus:
                    00:d8:ef:83:f3:f8:5c:c6:4e:c8:4b:88:e8:27:73:
                    93:50:36:20:00:9b:e9:11:38:2f:f8:0b:51:2b:6c:
                    5d:06:b8:fe:3f:49:3b:54:90:f2:60:5b:07:6a:19:
                    cc:b5:30:14:25:6e:1d:e1:de:14:20:0b:84:69:a3:
                    a2:9f:f7:65:cb:d5:6d:5b:9e:3e:6c:33:06:0f:7e:
                    1d:62:56:78:0e:fc:bf:51:ea:2c:6c:0a:60:0f:4c:
                    96:e3:7a:f8:68:37:d1:ef:76:26:55:bc:ee:45:af:
                    b0:54:84:f3:66:26:91:59:68:f0:bf:9e:2e:f7:4c:
                    22:c3:da:06:53:33:db:5c:cc:ca:14:32:f4:40:74:
                    89:e1:5d:3d:80:d5:13:48:e5:e1:e2:3e:07:55:c9:
                    7d:7d:d4:ce:22:2c:84:a0:5c:4e:9b:55:b2:33:32:
                    68:68:b7:95:64:08:c3:b7:1f:58:37:51:d5:83:78:
                    5f:20:79:bf:c1:a2:b1:00:82:c1:d0:e6:6b:e2:3f:
                    a9:23:32:3c:e9:4a:d7:eb:e1:34:d0:b5:50:e5:51:
                    de:35:bd:b0:4d:08:7e:5d:d7:48:dd:f3:ea:e2:70:
                    89:b9:57:20:60:4e:c9:49:e0:d8:bd:ca:1f:62:ed:
                    76:14:e2:9a:07:ce:b8:54:7d:d9:ce:c4:47:6e:1e:
                    53:69
                Exponent: 65537 (0x10001)
        X509v3 extensions:
            X509v3 Key Usage: 
                Digital Signature, Key Encipherment
            X509v3 Basic Constraints: 
                CA:FALSE
            Netscape Cert Type: 
                SSL Server
            Netscape Comment: 
                OpenSSL Generated Server Certificate
            X509v3 Subject Key Identifier: 
                68:7D:46:EC:58:DD:0D:AA:D1:CB:38:B3:84:B7:EF:65:1B:57:67:65
            X509v3 Authority Key Identifier: 
                keyid:F4:A7:C0:CC:91:46:AF:64:F3:91:F2:27:F8:C8:B2:6F:8A:87:32:73
                DirName:/C=DE/ST=Hessen/O=privacyidea/CN=CA001
                serial:FB:C8:EB:AC:83:CD:12:07

            X509v3 Extended Key Usage: 
                TLS Web Server Authentication
    Signature Algorithm: sha256WithRSAEncryption
         06:ad:41:32:d0:03:ba:79:24:5d:66:63:86:10:b4:78:62:b0:
         aa:ca:e2:03:15:0c:b5:b0:e7:54:11:cd:5b:cc:5e:4c:a8:b8:
         f1:89:84:7e:b5:66:c1:21:ba:31:c9:1c:41:5c:84:7a:63:d7:
         e2:ee:47:de:3e:cc:ed:5c:b6:2f:8b:2e:57:05:ef:45:99:96:
         4f:79:6b:11:9b:01:a3:f3:c7:eb:60:aa:43:24:32:df:1c:95:
         15:36:76:49:91:49:57:4f:40:d9:22:f9:40:9a:f9:e7:f6:8b:
         5e:b3:22:95:67:c1:0c:44:86:ea:ef:25:f9:aa:08:1c:98:d1:
         8b:a5:62:6b:a4:b7:44:29:08:25:d8:47:1a:db:0e:f0:10:52:
         3a:55:5c:f5:f1:c2:a1:12:39:86:64:b9:e7:45:86:13:0e:1b:
         71:e5:36:da:8f:50:d6:5b:86:db:c3:77:ef:9c:46:dd:c5:7e:
         04:03:26:fc:4b:d0:93:da:ff:f1:76:d3:d2:2c:83:b9:28:43:
         c5:50:42:73:bc:ff:39:f3:a7:2c:b1:bc:93:a1:e6:a2:3e:db:
         d0:b6:87:e0:c9:93:67:7e:e9:27:4a:27:c7:34:eb:67:22:15:
         4f:9f:10:d6:d4:cd:d2:52:fc:f4:ce:28:01:6f:c8:ec:3c:2d:
         56:fc:d2:a3
-----BEGIN CERTIFICATE-----
MIIEIjCCAwqgAwIBAgIEEAAA3jANBgkqhkiG9w0BAQsFADBEMQswCQYDVQQGEwJE
RTEPMA0GA1UECAwGSGVzc2VuMRQwEgYDVQQKDAtwcml2YWN5aWRlYTEOMAwGA1UE
AwwFQ0EwMDEwHhcNMTcwNTAzMjAwODQ4WhcNMTgwNTAzMjAwODQ4WjBQMQ8wDQYD
VQQLDAZyZWFsbTExEjAQBgNVBAMMCWNvcm5lbGl1czEpMCcGCSqGSIb3DQEJARYa
dXNlckBsb2NhbGhvc3QubG9jYWxkb21haW4wggEiMA0GCSqGSIb3DQEBAQUAA4IB
DwAwggEKAoIBAQDY74Pz+FzGTshLiOgnc5NQNiAAm+kROC/4C1ErbF0GuP4/STtU
kPJgWwdqGcy1MBQlbh3h3hQgC4Rpo6Kf92XL1W1bnj5sMwYPfh1iVngO/L9R6ixs
CmAPTJbjevhoN9HvdiZVvO5Fr7BUhPNmJpFZaPC/ni73TCLD2gZTM9tczMoUMvRA
dInhXT2A1RNI5eHiPgdVyX191M4iLISgXE6bVbIzMmhot5VkCMO3H1g3UdWDeF8g
eb/BorEAgsHQ5mviP6kjMjzpStfr4TTQtVDlUd41vbBNCH5d10jd8+ricIm5VyBg
TslJ4Ni9yh9i7XYU4poHzrhUfdnOxEduHlNpAgMBAAGjggEOMIIBCjALBgNVHQ8E
BAMCBaAwCQYDVR0TBAIwADARBglghkgBhvhCAQEEBAMCBkAwMwYJYIZIAYb4QgEN
BCYWJE9wZW5TU0wgR2VuZXJhdGVkIFNlcnZlciBDZXJ0aWZpY2F0ZTAdBgNVHQ4E
FgQUaH1G7FjdDarRyzizhLfvZRtXZ2UwdAYDVR0jBG0wa4AU9KfAzJFGr2TzkfIn
+Miyb4qHMnOhSKRGMEQxCzAJBgNVBAYTAkRFMQ8wDQYDVQQIDAZIZXNzZW4xFDAS
BgNVBAoMC3ByaXZhY3lpZGVhMQ4wDAYDVQQDDAVDQTAwMYIJAPvI66yDzRIHMBMG
A1UdJQQMMAoGCCsGAQUFBwMBMA0GCSqGSIb3DQEBCwUAA4IBAQAGrUEy0AO6eSRd
ZmOGELR4YrCqyuIDFQy1sOdUEc1bzF5MqLjxiYR+tWbBIboxyRxBXIR6Y9fi7kfe
PsztXLYviy5XBe9FmZZPeWsRmwGj88frYKpDJDLfHJUVNnZJkUlXT0DZIvlAmvnn
9otesyKVZ8EMRIbq7yX5qggcmNGLpWJrpLdEKQgl2Eca2w7wEFI6VVz18cKhEjmG
ZLnnRYYTDhtx5Tbaj1DWW4bbw3fvnEbdxX4EAyb8S9CT2v/xdtPSLIO5KEPFUEJz
vP8586cssbyToeaiPtvQtofgyZNnfuknSifHNOtnIhVPnxDW1M3SUvz0zigBb8js
PC1W/NKj
-----END CERTIFICATE-----
