Certificate:
    Data:
        Version: 3 (0x2)
        Serial Number: 268435671 (0x100000d7)
    Signature Algorithm: sha256WithRSAEncryption
        Issuer: C=DE, ST=Hessen, O=privacyidea, CN=CA001
        Validity
            Not Before: Jun 26 17:46:54 2017 GMT
            Not After : Jun 26 17:46:54 2018 GMT
        Subject: CN=selfservice,CN=user,O=realm1/emailAddress=meine
        Subject Public Key Info:
            Public Key Algorithm: rsaEncryption
                Public-Key: (2048 bit)
                Modulus:
                    00:cf:3c:d4:33:0e:12:c4:e6:da:cd:b6:56:a1:1c:
                    26:bb:26:1c:8a:4a:73:a8:58:8a:b6:1e:b3:8b:99:
                    d2:1d:07:c2:92:89:79:c0:69:d8:c8:df:28:61:98:
                    1e:b3:fe:ae:2b:bd:78:a9:f7:6e:47:dc:a3:a0:16:
                    8c:85:02:c1:4e:92:fd:72:6e:f0:c8:03:29:9b:b8:
                    00:6e:c0:83:95:c8:34:20:36:9c:b3:e5:e4:e6:76:
                    73:a3:1a:ad:40:96:e0:53:54:00:ec:76:79:9a:c6:
                    0d:7e:b6:bd:29:ec:83:f3:cb:89:a4:cb:6c:00:ba:
                    0c:c5:78:0f:ff:69:b8:94:f4:04:70:43:3f:d8:9e:
                    d7:a7:fb:5d:ce:75:8e:da:e7:c4:07:b1:9d:de:6f:
                    88:4b:b6:4d:9a:cf:f9:bc:fa:9f:cd:32:6d:f6:3a:
                    0b:0d:23:42:78:ec:97:42:bf:0e:4d:60:56:e1:d3:
                    02:f2:19:cb:84:57:90:e5:70:a1:a2:83:35:86:e2:
                    da:86:9f:f9:8a:c4:79:b3:52:28:da:cb:bb:34:ca:
                    d3:da:91:4a:cf:8d:76:a2:b2:6b:9b:f9:96:fd:09:
                    2a:da:11:23:4d:f0:cb:d6:b2:b1:0e:12:6c:9a:19:
                    65:98:87:ca:e4:ee:24:ce:44:ac:90:8f:9d:1b:c5:
                    2a:9d
                Exponent: 65537 (0x10001)
        X509v3 extensions:
            X509v3 Key Usage: 
                Digital Signature, Key Encipherment
            X509v3 Basic Constraints: 
                CA:FALSE
            Netscape Cert Type: 
                SSL Server
            Netscape Comment: 
                OpenSSL Generated Server Certificate
            X509v3 Subject Key Identifier: 
                4D:07:90:AD:FF:1D:0D:E7:1A:DD:D6:2E:FA:BA:34:CB:AA:1F:24:C6
            X509v3 Authority Key Identifier: 
                keyid:F4:A7:C0:CC:91:46:AF:64:F3:91:F2:27:F8:C8:B2:6F:8A:87:32:73
                DirName:/C=DE/ST=Hessen/O=privacyidea/CN=CA001
                serial:FB:C8:EB:AC:83:CD:12:07

            X509v3 Extended Key Usage: 
                TLS Web Server Authentication
    Signature Algorithm: sha256WithRSAEncryption
         64:63:d9:ec:31:bd:70:ec:48:14:45:ad:c8:89:1f:d7:4f:93:
         6f:ba:db:76:07:59:ca:1f:e1:cd:8b:24:30:58:1d:bf:8b:d9:
         78:5e:c8:ea:35:ab:06:f1:17:43:00:98:8e:9e:fc:19:1f:74:
         81:9c:b2:b5:81:07:5c:c6:04:58:a1:50:7f:a7:ba:44:6d:5d:
         11:98:bc:0e:01:54:9a:7f:2b:07:f5:99:da:df:82:da:c8:be:
         4d:1c:32:20:1e:b6:01:e2:d1:6f:da:50:72:1c:26:3b:07:46:
         17:14:5e:b5:92:a2:32:3f:7c:8f:16:d0:b9:98:6c:40:af:99:
         ea:e8:b5:a2:4b:4d:54:36:6c:07:1b:20:89:8f:16:ec:41:7d:
         5a:31:68:35:56:1c:3c:e0:dd:9f:ed:68:46:23:fb:d8:00:2c:
         a8:c1:30:87:6a:c4:bb:2b:0f:7f:22:96:25:dc:d1:da:52:5b:
         63:43:d7:19:df:83:fd:d2:44:e5:94:07:2f:3c:e6:65:2b:9e:
         a8:f6:f4:eb:d6:91:b5:e6:50:22:b0:ae:53:48:0c:eb:d9:51:
         e7:76:da:83:f4:c3:38:37:7c:d5:3a:d2:b3:15:c8:c1:99:c8:
         1b:3d:3e:3f:b5:a5:30:9d:f7:f5:eb:14:df:34:cc:de:c1:01:
         7a:a0:f2:b6
-----BEGIN CERTIFICATE-----
MIIEDzCCAvegAwIBAgIEEAAA1zANBgkqhkiG9w0BAQsFADBEMQswCQYDVQQGEwJE
RTEPMA0GA1UECAwGSGVzc2VuMRQwEgYDVQQKDAtwcml2YWN5aWRlYTEOMAwGA1UE
AwwFQ0EwMDEwHhcNMTcwNjI2MTc0NjU0WhcNMTgwNjI2MTc0NjU0WjA9MSUwIwYD
VQQDDBxzZWxmc2VydmljZSxDTj11c2VyLE89cmVhbG0xMRQwEgYJKoZIhvcNAQkB
FgVtZWluZTCCASIwDQYJKoZIhvcNAQEBBQADggEPADCCAQoCggEBAM881DMOEsTm
2s22VqEcJrsmHIpKc6hYirYes4uZ0h0HwpKJecBp2MjfKGGYHrP+riu9eKn3bkfc
o6AWjIUCwU6S/XJu8MgDKZu4AG7Ag5XINCA2nLPl5OZ2c6MarUCW4FNUAOx2eZrG
DX62vSnsg/PLiaTLbAC6DMV4D/9puJT0BHBDP9ie16f7Xc51jtrnxAexnd5viEu2
TZrP+bz6n80ybfY6Cw0jQnjsl0K/Dk1gVuHTAvIZy4RXkOVwoaKDNYbi2oaf+YrE
ebNSKNrLuzTK09qRSs+NdqKya5v5lv0JKtoRI03wy9aysQ4SbJoZZZiHyuTuJM5E
rJCPnRvFKp0CAwEAAaOCAQ4wggEKMAsGA1UdDwQEAwIFoDAJBgNVHRMEAjAAMBEG
CWCGSAGG+EIBAQQEAwIGQDAzBglghkgBhvhCAQ0EJhYkT3BlblNTTCBHZW5lcmF0
ZWQgU2VydmVyIENlcnRpZmljYXRlMB0GA1UdDgQWBBRNB5Ct/x0N5xrd1i76ujTL
qh8kxjB0BgNVHSMEbTBrgBT0p8DMkUavZPOR8if4yLJviocyc6FIpEYwRDELMAkG
A1UEBhMCREUxDzANBgNVBAgMBkhlc3NlbjEUMBIGA1UECgwLcHJpdmFjeWlkZWEx
DjAMBgNVBAMMBUNBMDAxggkA+8jrrIPNEgcwEwYDVR0lBAwwCgYIKwYBBQUHAwEw
DQYJKoZIhvcNAQELBQADggEBAGRj2ewxvXDsSBRFrciJH9dPk2+623YHWcof4c2L
JDBYHb+L2XheyOo1qwbxF0MAmI6e/BkfdIGcsrWBB1zGBFihUH+nukRtXRGYvA4B
VJp/Kwf1mdrfgtrIvk0cMiAetgHi0W/aUHIcJjsHRhcUXrWSojI/fI8W0LmYbECv
merotaJLTVQ2bAcbIImPFuxBfVoxaDVWHDzg3Z/taEYj+9gALKjBMIdqxLsrD38i
liXc0dpSW2ND1xnfg/3SROWUBy885mUrnqj29OvWkbXmUCKwrlNIDOvZUed22oP0
wzg3fNU60rMVyMGZyBs9Pj+1pTCd9/XrFN80zN7BAXqg8rY=
-----END CERTIFICATE-----
