Certificate:
    Data:
        Version: 3 (0x2)
        Serial Number: 268435679 (0x100000df)
    Signature Algorithm: sha256WithRSAEncryption
        Issuer: C=DE, ST=Hessen, O=privacyidea, CN=CA001
        Validity
            Not Before: May  3 20:17:06 2017 GMT
            Not After : May  3 20:17:06 2018 GMT
        Subject: CN=selfservice,CN=user,O=realm1/emailAddress=meine
        Subject Public Key Info:
            Public Key Algorithm: rsaEncryption
                Public-Key: (2048 bit)
                Modulus:
                    00:cf:3c:d4:33:0e:12:c4:e6:da:cd:b6:56:a1:1c:
                    26:bb:26:1c:8a:4a:73:a8:58:8a:b6:1e:b3:8b:99:
                    d2:1d:07:c2:92:89:79:c0:69:d8:c8:df:28:61:98:
                    1e:b3:fe:ae:2b:bd:78:a9:f7:6e:47:dc:a3:a0:16:
                    8c:85:02:c1:4e:92:fd:72:6e:f0:c8:03:29:9b:b8:
                    00:6e:c0:83:95:c8:34:20:36:9c:b3:e5:e4:e6:76:
                    73:a3:1a:ad:40:96:e0:53:54:00:ec:76:79:9a:c6:
                    0d:7e:b6:bd:29:ec:83:f3:cb:89:a4:cb:6c:00:ba:
                    0c:c5:78:0f:ff:69:b8:94:f4:04:70:43:3f:d8:9e:
                    d7:a7:fb:5d:ce:75:8e:da:e7:c4:07:b1:9d:de:6f:
                    88:4b:b6:4d:9a:cf:f9:bc:fa:9f:cd:32:6d:f6:3a:
                    0b:0d:23:42:78:ec:97:42:bf:0e:4d:60:56:e1:d3:
                    02:f2:19:cb:84:57:90:e5:70:a1:a2:83:35:86:e2:
                    da:86:9f:f9:8a:c4:79:b3:52:28:da:cb:bb:34:ca:
                    d3:da:91:4a:cf:8d:76:a2:b2:6b:9b:f9:96:fd:09:
                    2a:da:11:23:4d:f0:cb:d6:b2:b1:0e:12:6c:9a:19:
                    65:98:87:ca:e4:ee:24:ce:44:ac:90:8f:9d:1b:c5:
                    2a:9d
                Exponent: 65537 (0x10001)
        X509v3 extensions:
            X509v3 Key Usage: 
                Digital Signature, Key Encipherment
            X509v3 Basic Constraints: 
                CA:FALSE
            Netscape Cert Type: 
                SSL Server
            Netscape Comment: 
                OpenSSL Generated Server Certificate
            X509v3 Subject Key Identifier: 
                4D:07:90:AD:FF:1D:0D:E7:1A:DD:D6:2E:FA:BA:34:CB:AA:1F:24:C6
            X509v3 Authority Key Identifier: 
                keyid:F4:A7:C0:CC:91:46:AF:64:F3:91:F2:27:F8:C8:B2:6F:8A:87:32:73
                DirName:/C=DE/ST=Hessen/O=privacyidea/CN=CA001
                serial:FB:C8:EB:AC:83:CD:12:07

            X509v3 Extended Key Usage: 
                TLS Web Server Authentication
    Signature Algorithm: sha256WithRSAEncryption
         1a:00:aa:81:eb:35:b5:af:7d:52:b6:5d:e0:58:f6:76:ad:ad:
         5e:f0:b7:38:17:e5:34:b2:3b:cf:12:13:a3:20:74:09:81:4f:
         0a:39:b5:1f:43:89:14:4c:04:4c:01:96:45:1d:dc:5a:2b:10:
         19:ff:a4:40:51:bf:5d:18:23:0e:62:f1:9c:43:e5:8f:8e:53:
         a6:76:03:63:98:4f:77:b1:08:2c:3f:8c:e9:ad:80:d0:10:9c:
         1d:76:8b:d6:b5:8e:b3:c2:6c:e4:79:7f:be:97:5e:d7:cc:c3:
         8a:e3:62:35:3f:00:0d:89:cb:4d:be:25:8d:fe:1e:c7:40:46:
         18:b6:3c:7a:3f:5d:1a:61:30:bf:4d:5e:f7:81:77:9e:6d:9b:
         fa:73:a4:fe:0e:9e:ea:ba:15:37:f7:5b:e5:a4:e0:68:11:c1:
         98:06:f3:28:67:25:d2:64:e7:21:80:9a:97:b8:4e:db:53:7d:
         b2:0f:17:1b:67:70:14:c5:c0:0b:9d:ba:a7:a7:d7:4c:50:d5:
         2f:c2:43:da:06:57:16:19:77:87:5e:a1:66:c6:1a:86:3e:ca:
         9f:34:0d:71:92:7a:79:e8:a4:7e:32:28:c1:ac:81:23:a7:50:
         12:e1:70:5b:4c:47:8e:4d:be:b3:86:4f:aa:83:96:c9:f2:d2:
         11:63:c5:a2
-----BEGIN CERTIFICATE-----
MIIEDzCCAvegAwIBAgIEEAAA3zANBgkqhkiG9w0BAQsFADBEMQswCQYDVQQGEwJE
RTEPMA0GA1UECAwGSGVzc2VuMRQwEgYDVQQKDAtwcml2YWN5aWRlYTEOMAwGA1UE
AwwFQ0EwMDEwHhcNMTcwNTAzMjAxNzA2WhcNMTgwNTAzMjAxNzA2WjA9MSUwIwYD
VQQDDBxzZWxmc2VydmljZSxDTj11c2VyLE89cmVhbG0xMRQwEgYJKoZIhvcNAQkB
FgVtZWluZTCCASIwDQYJKoZIhvcNAQEBBQADggEPADCCAQoCggEBAM881DMOEsTm
2s22VqEcJrsmHIpKc6hYirYes4uZ0h0HwpKJecBp2MjfKGGYHrP+riu9eKn3bkfc
o6AWjIUCwU6S/XJu8MgDKZu4AG7Ag5XINCA2nLPl5OZ2c6MarUCW4FNUAOx2eZrG
DX62vSnsg/PLiaTLbAC6DMV4D/9puJT0BHBDP9ie16f7Xc51jtrnxAexnd5viEu2
TZrP+bz6n80ybfY6Cw0jQnjsl0K/Dk1gVuHTAvIZy4RXkOVwoaKDNYbi2oaf+YrE
ebNSKNrLuzTK09qRSs+NdqKya5v5lv0JKtoRI03wy9aysQ4SbJoZZZiHyuTuJM5E
rJCPnRvFKp0CAwEAAaOCAQ4wggEKMAsGA1UdDwQEAwIFoDAJBgNVHRMEAjAAMBEG
CWCGSAGG+EIBAQQEAwIGQDAzBglghkgBhvhCAQ0EJhYkT3BlblNTTCBHZW5lcmF0
ZWQgU2VydmVyIENlcnRpZmljYXRlMB0GA1UdDgQWBBRNB5Ct/x0N5xrd1i76ujTL
qh8kxjB0BgNVHSMEbTBrgBT0p8DMkUavZPOR8if4yLJviocyc6FIpEYwRDELMAkG
A1UEBhMCREUxDzANBgNVBAgMBkhlc3NlbjEUMBIGA1UECgwLcHJpdmFjeWlkZWEx
DjAMBgNVBAMMBUNBMDAxggkA+8jrrIPNEgcwEwYDVR0lBAwwCgYIKwYBBQUHAwEw
DQYJKoZIhvcNAQELBQADggEBABoAqoHrNbWvfVK2XeBY9natrV7wtzgX5TSyO88S
E6MgdAmBTwo5tR9DiRRMBEwBlkUd3ForEBn/pEBRv10YIw5i8ZxD5Y+OU6Z2A2OY
T3exCCw/jOmtgNAQnB12i9a1jrPCbOR5f76XXtfMw4rjYjU/AA2Jy02+JY3+HsdA
Rhi2PHo/XRphML9NXveBd55tm/pzpP4Onuq6FTf3W+Wk4GgRwZgG8yhnJdJk5yGA
mpe4TttTfbIPFxtncBTFwAuduqen10xQ1S/CQ9oGVxYZd4deoWbGGoY+yp80DXGS
ennopH4yKMGsgSOnUBLhcFtMR45NvrOGT6qDlsny0hFjxaI=
-----END CERTIFICATE-----
