Certificate:
    Data:
        Version: 3 (0x2)
        Serial Number: 268435675 (0x100000db)
    Signature Algorithm: sha256WithRSAEncryption
        Issuer: C=DE, ST=Hessen, O=privacyidea, CN=CA001
        Validity
            Not Before: May  3 20:05:27 2017 GMT
            Not After : May  3 20:05:27 2018 GMT
        Subject: CN=Steve Test/emailAddress=steve@openssl.org
        Subject Public Key Info:
            Public Key Algorithm: rsaEncryption
                Public-Key: (2048 bit)
                Modulus:
                    00:d2:81:89:20:51:48:0f:73:f4:11:32:24:d5:1f:
                    1c:fd:5c:f5:b6:e6:c5:f0:52:81:dc:d2:af:66:4a:
                    7c:93:31:61:5c:af:d1:6d:06:70:03:60:7c:72:0c:
                    88:dd:49:cd:9e:02:6c:d2:5a:d7:53:0f:f3:da:be:
                    69:64:b5:0f:0c:00:e3:b3:50:47:a3:b3:9b:ba:13:
                    50:d6:58:5a:4b:ab:39:e0:11:ca:0a:27:67:03:78:
                    22:66:6d:92:1e:1b:5c:49:ae:e6:6b:d1:8e:3b:9d:
                    06:d3:c6:ac:4d:53:43:10:ab:e8:96:c1:87:82:97:
                    99:8f:20:d3:99:12:37:31:84:e1:8a:ff:29:03:5f:
                    22:90:3e:7f:9b:e0:20:c1:ad:dc:ae:4c:39:1a:31:
                    96:17:02:8c:b2:d9:b4:0d:20:12:9b:7d:86:54:fd:
                    33:fd:c1:2a:62:46:f8:60:96:cf:6e:01:6f:22:df:
                    13:47:e7:97:ec:05:72:23:a3:62:f8:fa:ef:ac:9c:
                    72:f0:37:cb:2f:37:cf:90:a8:27:51:86:c6:d7:78:
                    08:8f:7e:25:a2:15:70:a2:fb:1c:b6:15:5e:a0:97:
                    8b:81:4c:09:28:8a:27:3b:94:bc:71:db:5b:71:37:
                    9a:2b:16:e0:6f:b5:c9:f5:4b:4f:20:ba:65:cf:af:
                    ad:ad
                Exponent: 65537 (0x10001)
        X509v3 extensions:
            X509v3 Key Usage: 
                Digital Signature, Key Encipherment
            X509v3 Basic Constraints: 
                CA:FALSE
            Netscape Cert Type: 
                SSL Server
            Netscape Comment: 
                OpenSSL Generated Server Certificate
            X509v3 Subject Key Identifier: 
                E5:25:6D:3E:AF:0D:DD:3F:4C:F2:45:19:39:D5:14:DB:7E:9C:C0:AD
            X509v3 Authority Key Identifier: 
                keyid:F4:A7:C0:CC:91:46:AF:64:F3:91:F2:27:F8:C8:B2:6F:8A:87:32:73
                DirName:/C=DE/ST=Hessen/O=privacyidea/CN=CA001
                serial:FB:C8:EB:AC:83:CD:12:07

            X509v3 Extended Key Usage: 
                TLS Web Server Authentication
    Signature Algorithm: sha256WithRSAEncryption
         09:08:c8:fc:48:b2:47:db:82:6b:0d:f2:78:70:cf:9b:48:6b:
         b7:06:eb:26:9a:a7:85:b6:05:15:c1:1f:db:5b:a1:64:85:28:
         2e:50:14:e8:ad:f3:7e:03:3c:93:cc:d5:d3:c1:dd:29:3c:3b:
         6b:6c:5e:42:66:7b:f1:73:62:86:e3:d3:0b:44:de:50:19:19:
         53:c5:20:31:24:e8:ff:30:cb:cb:ff:66:ef:ab:e7:1a:36:4a:
         bf:d4:27:22:86:9e:f5:c8:09:8a:82:6a:1d:bb:8b:2a:50:49:
         3d:03:2f:03:c2:a7:61:4b:1d:f4:98:26:cc:8d:18:37:f6:47:
         e0:f4:12:53:fc:63:fb:b3:f1:19:f7:e9:9d:56:0a:61:e5:5b:
         35:68:65:14:46:4d:f4:f7:0d:3f:6e:50:0a:ce:bb:8f:e2:9b:
         9c:b3:df:26:ef:7b:bb:79:b8:6a:59:75:85:6f:e9:1c:93:a7:
         23:51:a0:67:33:e0:a2:8a:0f:16:23:b7:b8:11:45:dd:c7:d9:
         04:1e:0c:da:10:da:98:97:d1:90:23:28:c5:77:d1:3d:70:0b:
         1a:c4:a1:dc:5a:19:18:0f:f5:db:6f:8f:41:06:26:ea:c6:c9:
         03:50:de:71:de:cd:53:51:f8:96:e6:b6:ee:e3:bb:51:70:0b:
         5b:16:35:57
-----BEGIN CERTIFICATE-----
MIIECTCCAvGgAwIBAgIEEAAA2zANBgkqhkiG9w0BAQsFADBEMQswCQYDVQQGEwJE
RTEPMA0GA1UECAwGSGVzc2VuMRQwEgYDVQQKDAtwcml2YWN5aWRlYTEOMAwGA1UE
AwwFQ0EwMDEwHhcNMTcwNTAzMjAwNTI3WhcNMTgwNTAzMjAwNTI3WjA3MRMwEQYD
VQQDDApTdGV2ZSBUZXN0MSAwHgYJKoZIhvcNAQkBFhFzdGV2ZUBvcGVuc3NsLm9y
ZzCCASIwDQYJKoZIhvcNAQEBBQADggEPADCCAQoCggEBANKBiSBRSA9z9BEyJNUf
HP1c9bbmxfBSgdzSr2ZKfJMxYVyv0W0GcANgfHIMiN1JzZ4CbNJa11MP89q+aWS1
DwwA47NQR6Ozm7oTUNZYWkurOeARygonZwN4ImZtkh4bXEmu5mvRjjudBtPGrE1T
QxCr6JbBh4KXmY8g05kSNzGE4Yr/KQNfIpA+f5vgIMGt3K5MORoxlhcCjLLZtA0g
Ept9hlT9M/3BKmJG+GCWz24BbyLfE0fnl+wFciOjYvj676yccvA3yy83z5CoJ1GG
xtd4CI9+JaIVcKL7HLYVXqCXi4FMCSiKJzuUvHHbW3E3misW4G+1yfVLTyC6Zc+v
ra0CAwEAAaOCAQ4wggEKMAsGA1UdDwQEAwIFoDAJBgNVHRMEAjAAMBEGCWCGSAGG
+EIBAQQEAwIGQDAzBglghkgBhvhCAQ0EJhYkT3BlblNTTCBHZW5lcmF0ZWQgU2Vy
dmVyIENlcnRpZmljYXRlMB0GA1UdDgQWBBTlJW0+rw3dP0zyRRk51RTbfpzArTB0
BgNVHSMEbTBrgBT0p8DMkUavZPOR8if4yLJviocyc6FIpEYwRDELMAkGA1UEBhMC
REUxDzANBgNVBAgMBkhlc3NlbjEUMBIGA1UECgwLcHJpdmFjeWlkZWExDjAMBgNV
BAMMBUNBMDAxggkA+8jrrIPNEgcwEwYDVR0lBAwwCgYIKwYBBQUHAwEwDQYJKoZI
hvcNAQELBQADggEBAAkIyPxIskfbgmsN8nhwz5tIa7cG6yaap4W2BRXBH9tboWSF
KC5QFOit834DPJPM1dPB3Sk8O2tsXkJme/FzYobj0wtE3lAZGVPFIDEk6P8wy8v/
Zu+r5xo2Sr/UJyKGnvXICYqCah27iypQST0DLwPCp2FLHfSYJsyNGDf2R+D0ElP8
Y/uz8Rn36Z1WCmHlWzVoZRRGTfT3DT9uUArOu4/im5yz3ybve7t5uGpZdYVv6RyT
pyNRoGcz4KKKDxYjt7gRRd3H2QQeDNoQ2piX0ZAjKMV30T1wCxrEodxaGRgP9dtv
j0EGJurGyQNQ3nHezVNR+Jbmtu7ju1FwC1sWNVc=
-----END CERTIFICATE-----
