Certificate:
    Data:
        Version: 3 (0x2)
        Serial Number: 268435667 (0x100000d3)
    Signature Algorithm: sha256WithRSAEncryption
        Issuer: C=DE, ST=Hessen, O=privacyidea, CN=CA001
        Validity
            Not Before: Jul  2 05:59:54 2017 GMT
            Not After : Jul  2 05:59:54 2018 GMT
        Subject: CN=Steve Test/emailAddress=steve@openssl.org
        Subject Public Key Info:
            Public Key Algorithm: rsaEncryption
                Public-Key: (2048 bit)
                Modulus:
                    00:d2:81:89:20:51:48:0f:73:f4:11:32:24:d5:1f:
                    1c:fd:5c:f5:b6:e6:c5:f0:52:81:dc:d2:af:66:4a:
                    7c:93:31:61:5c:af:d1:6d:06:70:03:60:7c:72:0c:
                    88:dd:49:cd:9e:02:6c:d2:5a:d7:53:0f:f3:da:be:
                    69:64:b5:0f:0c:00:e3:b3:50:47:a3:b3:9b:ba:13:
                    50:d6:58:5a:4b:ab:39:e0:11:ca:0a:27:67:03:78:
                    22:66:6d:92:1e:1b:5c:49:ae:e6:6b:d1:8e:3b:9d:
                    06:d3:c6:ac:4d:53:43:10:ab:e8:96:c1:87:82:97:
                    99:8f:20:d3:99:12:37:31:84:e1:8a:ff:29:03:5f:
                    22:90:3e:7f:9b:e0:20:c1:ad:dc:ae:4c:39:1a:31:
                    96:17:02:8c:b2:d9:b4:0d:20:12:9b:7d:86:54:fd:
                    33:fd:c1:2a:62:46:f8:60:96:cf:6e:01:6f:22:df:
                    13:47:e7:97:ec:05:72:23:a3:62:f8:fa:ef:ac:9c:
                    72:f0:37:cb:2f:37:cf:90:a8:27:51:86:c6:d7:78:
                    08:8f:7e:25:a2:15:70:a2:fb:1c:b6:15:5e:a0:97:
                    8b:81:4c:09:28:8a:27:3b:94:bc:71:db:5b:71:37:
                    9a:2b:16:e0:6f:b5:c9:f5:4b:4f:20:ba:65:cf:af:
                    ad:ad
                Exponent: 65537 (0x10001)
        X509v3 extensions:
            X509v3 Key Usage: 
                Digital Signature, Key Encipherment
            X509v3 Basic Constraints: 
                CA:FALSE
            Netscape Cert Type: 
                SSL Server
            Netscape Comment: 
                OpenSSL Generated Server Certificate
            X509v3 Subject Key Identifier: 
                E5:25:6D:3E:AF:0D:DD:3F:4C:F2:45:19:39:D5:14:DB:7E:9C:C0:AD
            X509v3 Authority Key Identifier: 
                keyid:F4:A7:C0:CC:91:46:AF:64:F3:91:F2:27:F8:C8:B2:6F:8A:87:32:73
                DirName:/C=DE/ST=Hessen/O=privacyidea/CN=CA001
                serial:FB:C8:EB:AC:83:CD:12:07

            X509v3 Extended Key Usage: 
                TLS Web Server Authentication
    Signature Algorithm: sha256WithRSAEncryption
         0b:13:64:52:fe:e7:78:cc:6b:16:f9:fd:44:f2:45:f9:19:f8:
         ce:5a:f7:68:20:de:a9:fa:66:08:ed:a2:79:08:3e:ca:ea:a7:
         a4:db:17:eb:91:c3:37:ba:34:0c:a5:4a:6c:61:01:5f:10:1b:
         18:5f:36:10:c1:8a:ec:df:e7:97:ed:c1:0d:61:b1:7e:12:0c:
         a4:c6:aa:6d:0d:25:f3:71:83:60:c6:61:7b:8b:c7:9f:83:fa:
         5f:1f:c4:3a:46:94:53:c5:84:42:3e:51:e2:75:bf:a2:c5:79:
         29:a5:ca:d8:f6:29:8f:6c:28:3f:8b:f7:a9:77:a2:2c:26:8f:
         92:5d:af:86:0e:51:f7:74:7d:e1:93:11:e8:16:25:01:d2:d7:
         dc:d8:76:09:b8:3c:01:44:e7:aa:84:1c:d8:e0:e6:bf:34:8f:
         05:cc:a3:4a:4a:5c:d9:19:e9:dd:32:ce:d6:b9:73:56:90:38:
         0d:99:f6:bd:c8:f1:f4:f5:3c:4b:d9:0b:2b:ff:39:5f:79:e8:
         c7:1c:10:c6:27:a9:70:b1:64:2a:13:07:b3:59:34:a8:94:0f:
         4f:13:ec:bc:65:af:a6:dc:2e:43:d7:19:40:84:82:27:7c:eb:
         36:53:67:f9:e7:c0:02:f8:76:fa:93:58:69:20:c8:bf:e6:6e:
         cc:62:8c:9a
-----BEGIN CERTIFICATE-----
MIIECTCCAvGgAwIBAgIEEAAA0zANBgkqhkiG9w0BAQsFADBEMQswCQYDVQQGEwJE
RTEPMA0GA1UECAwGSGVzc2VuMRQwEgYDVQQKDAtwcml2YWN5aWRlYTEOMAwGA1UE
AwwFQ0EwMDEwHhcNMTcwNzAyMDU1OTU0WhcNMTgwNzAyMDU1OTU0WjA3MRMwEQYD
VQQDDApTdGV2ZSBUZXN0MSAwHgYJKoZIhvcNAQkBFhFzdGV2ZUBvcGVuc3NsLm9y
ZzCCASIwDQYJKoZIhvcNAQEBBQADggEPADCCAQoCggEBANKBiSBRSA9z9BEyJNUf
HP1c9bbmxfBSgdzSr2ZKfJMxYVyv0W0GcANgfHIMiN1JzZ4CbNJa11MP89q+aWS1
DwwA47NQR6Ozm7oTUNZYWkurOeARygonZwN4ImZtkh4bXEmu5mvRjjudBtPGrE1T
QxCr6JbBh4KXmY8g05kSNzGE4Yr/KQNfIpA+f5vgIMGt3K5MORoxlhcCjLLZtA0g
Ept9hlT9M/3BKmJG+GCWz24BbyLfE0fnl+wFciOjYvj676yccvA3yy83z5CoJ1GG
xtd4CI9+JaIVcKL7HLYVXqCXi4FMCSiKJzuUvHHbW3E3misW4G+1yfVLTyC6Zc+v
ra0CAwEAAaOCAQ4wggEKMAsGA1UdDwQEAwIFoDAJBgNVHRMEAjAAMBEGCWCGSAGG
+EIBAQQEAwIGQDAzBglghkgBhvhCAQ0EJhYkT3BlblNTTCBHZW5lcmF0ZWQgU2Vy
dmVyIENlcnRpZmljYXRlMB0GA1UdDgQWBBTlJW0+rw3dP0zyRRk51RTbfpzArTB0
BgNVHSMEbTBrgBT0p8DMkUavZPOR8if4yLJviocyc6FIpEYwRDELMAkGA1UEBhMC
REUxDzANBgNVBAgMBkhlc3NlbjEUMBIGA1UECgwLcHJpdmFjeWlkZWExDjAMBgNV
BAMMBUNBMDAxggkA+8jrrIPNEgcwEwYDVR0lBAwwCgYIKwYBBQUHAwEwDQYJKoZI
hvcNAQELBQADggEBAAsTZFL+53jMaxb5/UTyRfkZ+M5a92gg3qn6ZgjtonkIPsrq
p6TbF+uRwze6NAylSmxhAV8QGxhfNhDBiuzf55ftwQ1hsX4SDKTGqm0NJfNxg2DG
YXuLx5+D+l8fxDpGlFPFhEI+UeJ1v6LFeSmlytj2KY9sKD+L96l3oiwmj5Jdr4YO
Ufd0feGTEegWJQHS19zYdgm4PAFE56qEHNjg5r80jwXMo0pKXNkZ6d0yzta5c1aQ
OA2Z9r3I8fT1PEvZCyv/OV956MccEMYnqXCxZCoTB7NZNKiUD08T7Lxlr6bcLkPX
GUCEgid86zZTZ/nnwAL4dvqTWGkgyL/mbsxijJo=
-----END CERTIFICATE-----
