Certificate:
    Data:
        Version: 3 (0x2)
        Serial Number: 268435670 (0x100000d6)
    Signature Algorithm: sha256WithRSAEncryption
        Issuer: C=DE, ST=Hessen, O=privacyidea, CN=CA001
        Validity
            Not Before: Jul  2 06:03:22 2017 GMT
            Not After : Jul  2 06:03:22 2018 GMT
        Subject: OU=realm1, CN=cornelius/emailAddress=user@localhost.localdomain
        Subject Public Key Info:
            Public Key Algorithm: rsaEncryption
                Public-Key: (2048 bit)
                Modulus:
                    00:c9:2e:d2:59:dc:58:7d:24:3e:bc:52:f0:0b:1f:
                    4e:f5:ad:6b:dc:dc:6e:f3:60:0d:a5:3a:32:ac:c9:
                    b9:89:a6:57:bc:8f:de:27:85:d0:88:7e:ed:31:66:
                    94:ba:a1:c4:7c:bb:f9:57:33:dd:ab:c7:b8:48:9c:
                    42:22:c4:1e:4b:64:98:2f:35:5a:aa:d9:a1:f3:6b:
                    cb:47:d3:ac:f7:fa:4f:d3:d7:ba:d2:06:2a:af:46:
                    3e:f0:40:29:3e:a1:b1:bf:7a:0d:cc:21:3c:de:e3:
                    0f:a5:d2:b8:55:8a:1c:b6:22:93:58:98:82:31:67:
                    1d:ee:28:53:7b:22:29:05:df:f9:1f:c2:8e:40:ec:
                    71:b9:f3:e9:b6:75:16:27:9a:10:2e:29:40:e7:a8:
                    66:b4:ff:f5:9e:8c:22:55:90:c8:be:df:42:4f:1b:
                    bd:bd:0d:48:9f:04:d2:f5:88:71:0a:95:de:0d:bd:
                    fe:31:08:b3:da:09:d2:02:a6:0a:69:1e:23:ca:af:
                    3a:4a:a1:76:68:e6:6c:a5:34:9e:8f:35:33:21:39:
                    4b:3e:6c:87:0a:37:ec:2e:5b:9a:26:35:d2:06:b7:
                    d8:18:90:88:ad:19:e8:4c:38:8f:6c:68:90:87:82:
                    34:ee:e9:65:e8:5e:4c:31:0c:fc:d8:4e:e3:09:df:
                    4c:e5
                Exponent: 65537 (0x10001)
        X509v3 extensions:
            X509v3 Key Usage: 
                Digital Signature, Key Encipherment
            X509v3 Basic Constraints: 
                CA:FALSE
            Netscape Cert Type: 
                SSL Server
            Netscape Comment: 
                OpenSSL Generated Server Certificate
            X509v3 Subject Key Identifier: 
                1E:83:59:07:8F:DA:E7:6D:08:59:32:95:46:02:CD:BB:0B:11:DA:79
            X509v3 Authority Key Identifier: 
                keyid:F4:A7:C0:CC:91:46:AF:64:F3:91:F2:27:F8:C8:B2:6F:8A:87:32:73
                DirName:/C=DE/ST=Hessen/O=privacyidea/CN=CA001
                serial:FB:C8:EB:AC:83:CD:12:07

            X509v3 Extended Key Usage: 
                TLS Web Server Authentication
    Signature Algorithm: sha256WithRSAEncryption
         01:2d:7f:92:91:98:de:cb:a0:4a:ab:49:ba:3b:d5:0b:75:9d:
         97:06:f5:42:c9:9e:b4:db:2a:91:55:7e:0c:ef:ff:ea:de:70:
         75:98:01:0d:ea:45:5f:d9:fe:ff:ad:8c:d4:61:c8:08:1d:ed:
         6c:07:a3:ee:fe:6b:a3:79:9f:47:0f:75:08:b3:db:b9:c2:53:
         84:3a:23:58:a9:9a:a6:ab:77:80:c0:e5:b0:5a:1a:a6:6a:21:
         f7:95:e6:8f:1f:93:54:e9:86:19:41:5d:bf:cc:3b:fb:02:b8:
         6e:9d:42:49:b6:20:3a:be:0d:b9:f1:d3:63:57:4d:2d:aa:7e:
         1b:b8:00:e0:c4:b4:02:61:c6:2c:44:18:b4:98:d2:1f:ca:db:
         68:1b:d8:82:f9:69:f5:fa:64:c2:a7:e0:5e:06:76:a1:00:75:
         e6:5e:1e:54:3a:14:af:08:ad:e3:a7:75:20:ef:9a:24:45:13:
         16:15:43:6e:32:04:6b:e6:86:c0:3f:b0:67:51:5b:f9:45:5f:
         f6:12:83:d6:c7:49:40:5e:45:f9:ab:5d:2d:6f:0f:12:43:a9:
         84:73:b5:1a:89:af:44:c0:5c:a8:86:5c:5b:eb:d9:3e:01:3e:
         2b:34:44:b0:bb:23:10:a7:d6:95:d7:bf:8c:1a:1b:07:62:ab:
         a0:61:91:74
-----BEGIN CERTIFICATE-----
MIIEIjCCAwqgAwIBAgIEEAAA1jANBgkqhkiG9w0BAQsFADBEMQswCQYDVQQGEwJE
RTEPMA0GA1UECAwGSGVzc2VuMRQwEgYDVQQKDAtwcml2YWN5aWRlYTEOMAwGA1UE
AwwFQ0EwMDEwHhcNMTcwNzAyMDYwMzIyWhcNMTgwNzAyMDYwMzIyWjBQMQ8wDQYD
VQQLDAZyZWFsbTExEjAQBgNVBAMMCWNvcm5lbGl1czEpMCcGCSqGSIb3DQEJARYa
dXNlckBsb2NhbGhvc3QubG9jYWxkb21haW4wggEiMA0GCSqGSIb3DQEBAQUAA4IB
DwAwggEKAoIBAQDJLtJZ3Fh9JD68UvALH071rWvc3G7zYA2lOjKsybmJple8j94n
hdCIfu0xZpS6ocR8u/lXM92rx7hInEIixB5LZJgvNVqq2aHza8tH06z3+k/T17rS
BiqvRj7wQCk+obG/eg3MITze4w+l0rhVihy2IpNYmIIxZx3uKFN7IikF3/kfwo5A
7HG58+m2dRYnmhAuKUDnqGa0//WejCJVkMi+30JPG729DUifBNL1iHEKld4Nvf4x
CLPaCdICpgppHiPKrzpKoXZo5mylNJ6PNTMhOUs+bIcKN+wuW5omNdIGt9gYkIit
GehMOI9saJCHgjTu6WXoXkwxDPzYTuMJ30zlAgMBAAGjggEOMIIBCjALBgNVHQ8E
BAMCBaAwCQYDVR0TBAIwADARBglghkgBhvhCAQEEBAMCBkAwMwYJYIZIAYb4QgEN
BCYWJE9wZW5TU0wgR2VuZXJhdGVkIFNlcnZlciBDZXJ0aWZpY2F0ZTAdBgNVHQ4E
FgQUHoNZB4/a520IWTKVRgLNuwsR2nkwdAYDVR0jBG0wa4AU9KfAzJFGr2TzkfIn
+Miyb4qHMnOhSKRGMEQxCzAJBgNVBAYTAkRFMQ8wDQYDVQQIDAZIZXNzZW4xFDAS
BgNVBAoMC3ByaXZhY3lpZGVhMQ4wDAYDVQQDDAVDQTAwMYIJAPvI66yDzRIHMBMG
A1UdJQQMMAoGCCsGAQUFBwMBMA0GCSqGSIb3DQEBCwUAA4IBAQABLX+SkZjey6BK
q0m6O9ULdZ2XBvVCyZ602yqRVX4M7//q3nB1mAEN6kVf2f7/rYzUYcgIHe1sB6Pu
/mujeZ9HD3UIs9u5wlOEOiNYqZqmq3eAwOWwWhqmaiH3leaPH5NU6YYZQV2/zDv7
ArhunUJJtiA6vg258dNjV00tqn4buADgxLQCYcYsRBi0mNIfyttoG9iC+Wn1+mTC
p+BeBnahAHXmXh5UOhSvCK3jp3Ug75okRRMWFUNuMgRr5obAP7BnUVv5RV/2EoPW
x0lAXkX5q10tbw8SQ6mEc7Uaia9EwFyohlxb69k+AT4rNESwuyMQp9aV17+MGhsH
YqugYZF0
-----END CERTIFICATE-----
