Certificate:
    Data:
        Version: 3 (0x2)
        Serial Number: 268435669 (0x100000d5)
    Signature Algorithm: sha256WithRSAEncryption
        Issuer: C=DE, ST=Hessen, O=privacyidea, CN=CA001
        Validity
            Not Before: Jul  2 06:03:21 2017 GMT
            Not After : Jul  2 06:03:21 2018 GMT
        Subject: C=DE, ST=Hessen, O=privacyidea, CN=requester.localdomain
        Subject Public Key Info:
            Public Key Algorithm: rsaEncryption
                Public-Key: (2048 bit)
                Modulus:
                    00:cd:be:14:4f:fa:ce:01:3f:42:22:1b:1d:9c:af:
                    dd:92:d2:7f:db:6c:b7:3e:39:43:43:6b:13:03:f1:
                    05:f4:07:74:bc:76:69:28:0b:af:19:8e:d7:fc:e3:
                    cd:c6:58:f2:ca:7f:08:6d:53:fc:07:02:44:24:c6:
                    b4:34:4c:8c:04:fe:33:0e:40:e2:20:ba:02:73:5a:
                    f7:f5:4f:63:6e:cc:c6:b6:df:54:1d:37:39:7d:51:
                    36:26:5f:bd:dc:3f:a8:8b:6b:a2:ae:b6:9d:d6:21:
                    e7:df:41:b8:7a:28:2a:68:48:ca:a8:2d:ed:e1:e9:
                    46:5e:5a:72:6d:b4:84:38:87:91:fd:94:11:0b:28:
                    84:c6:c2:2f:2a:fb:01:f9:36:7a:09:75:d1:33:88:
                    3c:73:41:5b:c8:bf:94:89:70:a1:f0:c0:b9:2e:50:
                    53:1e:b1:17:64:69:f4:2d:81:e0:a9:0d:0e:32:e9:
                    ba:55:8a:85:f1:1b:6f:49:79:b4:7f:88:c3:0d:3e:
                    54:88:9b:3d:1f:38:8c:04:f3:ee:6a:63:2b:f5:c6:
                    db:b4:83:aa:c4:78:41:3a:7d:4b:e1:c8:3e:71:ca:
                    1b:61:59:ea:c6:c4:ca:32:5e:c9:e9:bf:12:29:e6:
                    c6:c3:63:fe:a0:55:da:7a:f1:60:98:4d:26:ed:fa:
                    70:2d
                Exponent: 65537 (0x10001)
        X509v3 extensions:
            X509v3 Key Usage: 
                Digital Signature, Key Encipherment
            X509v3 Basic Constraints: 
                CA:FALSE
            Netscape Cert Type: 
                SSL Server
            Netscape Comment: 
                OpenSSL Generated Server Certificate
            X509v3 Subject Key Identifier: 
                53:3F:ED:5D:09:07:B3:65:7B:AB:45:C9:24:5B:09:77:80:0A:96:ED
            X509v3 Authority Key Identifier: 
                keyid:F4:A7:C0:CC:91:46:AF:64:F3:91:F2:27:F8:C8:B2:6F:8A:87:32:73
                DirName:/C=DE/ST=Hessen/O=privacyidea/CN=CA001
                serial:FB:C8:EB:AC:83:CD:12:07

            X509v3 Extended Key Usage: 
                TLS Web Server Authentication
    Signature Algorithm: sha256WithRSAEncryption
         64:27:90:bf:77:f4:ef:70:68:d4:d0:5c:41:21:14:e4:92:ec:
         b9:b0:e5:37:c1:4f:2e:67:71:ef:43:d7:c5:c3:8b:6d:7b:50:
         3e:72:bf:0c:ed:69:54:50:16:25:bb:ee:1a:d1:92:7b:09:b6:
         18:e8:5e:98:0a:d5:1c:1f:50:e5:b4:d4:2c:ef:a3:eb:39:f8:
         93:02:fa:bb:0d:ba:71:70:ff:e2:48:2a:cc:82:12:e4:f3:6d:
         bf:f6:e4:c5:7e:09:98:a0:ac:d1:44:65:90:16:2b:72:fc:4b:
         32:d2:86:53:76:c3:a2:07:db:82:cc:a2:9a:4b:2c:47:da:39:
         4b:39:b5:38:14:6f:a8:3a:cd:64:b5:03:01:86:e5:9e:ec:d7:
         db:42:b7:dc:05:5b:c6:70:2e:70:4e:f3:bd:27:12:40:f0:fe:
         e8:fa:f3:b9:9b:ac:d8:92:6f:dd:06:5e:dd:9c:32:67:1b:05:
         5b:b0:4e:48:db:2a:cd:de:3b:9c:54:ba:37:ce:3b:83:4e:ce:
         79:4b:0b:24:d5:57:32:e2:b1:6b:3d:57:4a:79:0b:ba:65:4d:
         1c:77:0e:e1:1c:f5:c5:69:fe:37:92:1a:7d:40:10:71:c7:3c:
         d7:b1:20:4b:f6:e7:83:c7:20:22:d8:dc:dd:cc:f2:4c:ae:bc:
         10:ff:bb:c9
-----BEGIN CERTIFICATE-----
MIIEJjCCAw6gAwIBAgIEEAAA1TANBgkqhkiG9w0BAQsFADBEMQswCQYDVQQGEwJE
RTEPMA0GA1UECAwGSGVzc2VuMRQwEgYDVQQKDAtwcml2YWN5aWRlYTEOMAwGA1UE
AwwFQ0EwMDEwHhcNMTcwNzAyMDYwMzIxWhcNMTgwNzAyMDYwMzIxWjBUMQswCQYD
VQQGEwJERTEPMA0GA1UECAwGSGVzc2VuMRQwEgYDVQQKDAtwcml2YWN5aWRlYTEe
MBwGA1UEAwwVcmVxdWVzdGVyLmxvY2FsZG9tYWluMIIBIjANBgkqhkiG9w0BAQEF
AAOCAQ8AMIIBCgKCAQEAzb4UT/rOAT9CIhsdnK/dktJ/22y3PjlDQ2sTA/EF9Ad0
vHZpKAuvGY7X/OPNxljyyn8IbVP8BwJEJMa0NEyMBP4zDkDiILoCc1r39U9jbszG
tt9UHTc5fVE2Jl+93D+oi2uirrad1iHn30G4eigqaEjKqC3t4elGXlpybbSEOIeR
/ZQRCyiExsIvKvsB+TZ6CXXRM4g8c0FbyL+UiXCh8MC5LlBTHrEXZGn0LYHgqQ0O
Mum6VYqF8RtvSXm0f4jDDT5UiJs9HziMBPPuamMr9cbbtIOqxHhBOn1L4cg+ccob
YVnqxsTKMl7J6b8SKebGw2P+oFXaevFgmE0m7fpwLQIDAQABo4IBDjCCAQowCwYD
VR0PBAQDAgWgMAkGA1UdEwQCMAAwEQYJYIZIAYb4QgEBBAQDAgZAMDMGCWCGSAGG
+EIBDQQmFiRPcGVuU1NMIEdlbmVyYXRlZCBTZXJ2ZXIgQ2VydGlmaWNhdGUwHQYD
VR0OBBYEFFM/7V0JB7Nle6tFySRbCXeACpbtMHQGA1UdIwRtMGuAFPSnwMyRRq9k
85HyJ/jIsm+KhzJzoUikRjBEMQswCQYDVQQGEwJERTEPMA0GA1UECAwGSGVzc2Vu
MRQwEgYDVQQKDAtwcml2YWN5aWRlYTEOMAwGA1UEAwwFQ0EwMDGCCQD7yOusg80S
BzATBgNVHSUEDDAKBggrBgEFBQcDATANBgkqhkiG9w0BAQsFAAOCAQEAZCeQv3f0
73Bo1NBcQSEU5JLsubDlN8FPLmdx70PXxcOLbXtQPnK/DO1pVFAWJbvuGtGSewm2
GOhemArVHB9Q5bTULO+j6zn4kwL6uw26cXD/4kgqzIIS5PNtv/bkxX4JmKCs0URl
kBYrcvxLMtKGU3bDogfbgsyimkssR9o5Szm1OBRvqDrNZLUDAYblnuzX20K33AVb
xnAucE7zvScSQPD+6PrzuZus2JJv3QZe3ZwyZxsFW7BOSNsqzd47nFS6N847g07O
eUsLJNVXMuKxaz1XSnkLumVNHHcO4Rz1xWn+N5IafUAQccc817EgS/bng8cgItjc
3czyTK68EP+7yQ==
-----END CERTIFICATE-----
