Certificate:
    Data:
        Version: 3 (0x2)
        Serial Number: 268435666 (0x100000d2)
    Signature Algorithm: sha256WithRSAEncryption
        Issuer: C=DE, ST=Hessen, O=privacyidea, CN=CA001
        Validity
            Not Before: Jul  2 05:59:53 2017 GMT
            Not After : Jul  2 05:59:53 2018 GMT
        Subject: C=DE, ST=Hessen, O=privacyidea, CN=usercert
        Subject Public Key Info:
            Public Key Algorithm: rsaEncryption
                Public-Key: (2048 bit)
                Modulus:
                    00:dc:2f:d1:5f:29:97:d4:7c:c3:53:c8:30:bd:4b:
                    67:70:2c:24:6b:b8:5e:eb:21:7a:48:12:56:7c:81:
                    5c:48:75:b6:68:eb:f6:f2:98:4e:50:51:d1:7f:6c:
                    73:f3:0a:a7:ae:be:48:5e:e5:d6:e1:d9:2a:7c:32:
                    6e:4e:fd:08:f6:5a:54:49:23:73:c3:b9:07:18:d1:
                    ef:b3:ac:f8:8a:dc:94:96:a4:90:3a:8e:74:df:e6:
                    0d:37:1b:bd:5b:b7:25:1a:56:39:da:6f:91:aa:5e:
                    1c:74:f3:f9:7c:14:01:83:12:65:76:c7:bb:fe:36:
                    5b:95:e9:72:65:83:ed:3e:98:30:71:fa:87:dd:a3:
                    36:5a:30:03:2e:26:e0:61:d1:bf:02:3f:b6:06:1f:
                    4a:89:28:1c:5c:a2:ff:4e:be:94:e6:8c:e0:da:82:
                    f1:9d:29:32:48:30:73:b4:04:f6:42:1e:be:f7:e2:
                    32:32:27:3c:9d:89:2f:70:3e:85:9a:6f:5c:c5:09:
                    c0:8c:32:2f:72:22:c9:d2:95:1f:b6:ac:72:60:72:
                    b7:82:4d:6b:ce:5b:e3:00:d0:d2:2f:58:c6:e0:10:
                    e5:51:ca:4d:3b:2e:e6:7e:ab:84:d6:56:f1:93:35:
                    a0:93:64:26:81:75:2f:91:b5:16:06:38:0b:db:cc:
                    2d:07
                Exponent: 65537 (0x10001)
        X509v3 extensions:
            X509v3 Key Usage: 
                Digital Signature, Key Encipherment
            X509v3 Basic Constraints: 
                CA:FALSE
            Netscape Cert Type: 
                SSL Server
            Netscape Comment: 
                OpenSSL Generated Server Certificate
            X509v3 Subject Key Identifier: 
                FC:14:D1:F0:4B:8D:00:90:F2:F5:B8:71:9E:4E:97:C3:92:54:AD:0B
            X509v3 Authority Key Identifier: 
                keyid:F4:A7:C0:CC:91:46:AF:64:F3:91:F2:27:F8:C8:B2:6F:8A:87:32:73
                DirName:/C=DE/ST=Hessen/O=privacyidea/CN=CA001
                serial:FB:C8:EB:AC:83:CD:12:07

            X509v3 Extended Key Usage: 
                TLS Web Server Authentication
    Signature Algorithm: sha256WithRSAEncryption
         8b:14:ab:23:20:b8:10:30:ed:dc:d8:80:4e:c9:78:9a:03:7f:
         99:77:67:9d:7d:27:fc:dd:03:48:d8:2b:e8:de:5c:95:aa:ee:
         ea:ce:fd:3e:b6:df:0f:83:c0:e5:6d:8c:53:fd:ec:74:56:d6:
         94:0a:74:76:f4:11:b6:d8:1a:05:f2:c9:fe:c6:a2:94:ae:f6:
         81:2b:60:46:6d:87:87:d8:88:a2:74:fb:08:6f:dc:12:47:79:
         7d:5a:a5:4f:fc:ff:ef:f6:da:dd:82:e7:9d:6e:72:82:a6:c5:
         a2:f4:16:80:42:0b:d7:41:26:02:79:48:45:84:2a:f0:3f:86:
         dd:45:52:3b:5d:95:aa:83:fc:d9:c8:84:d0:af:8a:21:4b:9a:
         93:66:70:57:82:17:53:a7:a7:f4:ec:ae:1b:ee:ac:cc:21:21:
         42:97:dc:2c:8f:fe:9f:8c:c3:0a:0b:4c:11:5b:91:f9:55:37:
         47:7e:3e:c8:31:c9:d6:dd:79:8e:53:8f:af:a6:8f:da:fd:7f:
         1c:0f:c1:15:2f:d3:42:5e:a7:2e:2a:ff:62:d7:e8:75:66:03:
         e3:d2:02:94:af:eb:24:cb:1c:14:a5:1f:4d:85:28:35:2a:0f:
         35:35:6a:07:60:df:18:ff:5e:80:2b:e1:52:5a:48:d8:58:12:
         54:f7:86:b8
-----BEGIN CERTIFICATE-----
MIIEGTCCAwGgAwIBAgIEEAAA0jANBgkqhkiG9w0BAQsFADBEMQswCQYDVQQGEwJE
RTEPMA0GA1UECAwGSGVzc2VuMRQwEgYDVQQKDAtwcml2YWN5aWRlYTEOMAwGA1UE
AwwFQ0EwMDEwHhcNMTcwNzAyMDU1OTUzWhcNMTgwNzAyMDU1OTUzWjBHMQswCQYD
VQQGEwJERTEPMA0GA1UECAwGSGVzc2VuMRQwEgYDVQQKDAtwcml2YWN5aWRlYTER
MA8GA1UEAwwIdXNlcmNlcnQwggEiMA0GCSqGSIb3DQEBAQUAA4IBDwAwggEKAoIB
AQDcL9FfKZfUfMNTyDC9S2dwLCRruF7rIXpIElZ8gVxIdbZo6/bymE5QUdF/bHPz
Cqeuvkhe5dbh2Sp8Mm5O/Qj2WlRJI3PDuQcY0e+zrPiK3JSWpJA6jnTf5g03G71b
tyUaVjnab5GqXhx08/l8FAGDEmV2x7v+NluV6XJlg+0+mDBx+ofdozZaMAMuJuBh
0b8CP7YGH0qJKBxcov9OvpTmjODagvGdKTJIMHO0BPZCHr734jIyJzydiS9wPoWa
b1zFCcCMMi9yIsnSlR+2rHJgcreCTWvOW+MA0NIvWMbgEOVRyk07LuZ+q4TWVvGT
NaCTZCaBdS+RtRYGOAvbzC0HAgMBAAGjggEOMIIBCjALBgNVHQ8EBAMCBaAwCQYD
VR0TBAIwADARBglghkgBhvhCAQEEBAMCBkAwMwYJYIZIAYb4QgENBCYWJE9wZW5T
U0wgR2VuZXJhdGVkIFNlcnZlciBDZXJ0aWZpY2F0ZTAdBgNVHQ4EFgQU/BTR8EuN
AJDy9bhxnk6Xw5JUrQswdAYDVR0jBG0wa4AU9KfAzJFGr2TzkfIn+Miyb4qHMnOh
SKRGMEQxCzAJBgNVBAYTAkRFMQ8wDQYDVQQIDAZIZXNzZW4xFDASBgNVBAoMC3By
aXZhY3lpZGVhMQ4wDAYDVQQDDAVDQTAwMYIJAPvI66yDzRIHMBMGA1UdJQQMMAoG
CCsGAQUFBwMBMA0GCSqGSIb3DQEBCwUAA4IBAQCLFKsjILgQMO3c2IBOyXiaA3+Z
d2edfSf83QNI2Cvo3lyVqu7qzv0+tt8Pg8DlbYxT/ex0VtaUCnR29BG22BoF8sn+
xqKUrvaBK2BGbYeH2IiidPsIb9wSR3l9WqVP/P/v9trdguedbnKCpsWi9BaAQgvX
QSYCeUhFhCrwP4bdRVI7XZWqg/zZyITQr4ohS5qTZnBXghdTp6f07K4b7qzMISFC
l9wsj/6fjMMKC0wRW5H5VTdHfj7IMcnW3XmOU4+vpo/a/X8cD8EVL9NCXqcuKv9i
1+h1ZgPj0gKUr+skyxwUpR9NhSg1Kg81NWoHYN8Y/16AK+FSWkjYWBJU94a4
-----END CERTIFICATE-----
